ARM GAS  C:\Users\Jakob\AppData\Local\Temp\ccOWkJ4j.s 			page 1


   1              		.cpu cortex-m4
   2              		.arch armv7e-m
   3              		.fpu fpv4-sp-d16
   4              		.eabi_attribute 27, 1
   5              		.eabi_attribute 28, 1
   6              		.eabi_attribute 20, 1
   7              		.eabi_attribute 21, 1
   8              		.eabi_attribute 23, 3
   9              		.eabi_attribute 24, 1
  10              		.eabi_attribute 25, 1
  11              		.eabi_attribute 26, 1
  12              		.eabi_attribute 30, 1
  13              		.eabi_attribute 34, 1
  14              		.eabi_attribute 18, 4
  15              		.file	"stm32l4xx_hal_timebase_tim.c"
  16              		.text
  17              	.Ltext0:
  18              		.cfi_sections	.debug_frame
  19              		.file 1 "Core/Src/stm32l4xx_hal_timebase_tim.c"
  20              		.section	.text.HAL_InitTick,"ax",%progbits
  21              		.align	1
  22              		.global	HAL_InitTick
  23              		.syntax unified
  24              		.thumb
  25              		.thumb_func
  27              	HAL_InitTick:
  28              	.LVL0:
  29              	.LFB132:
   1:Core/Src/stm32l4xx_hal_timebase_tim.c **** /* USER CODE BEGIN Header */
   2:Core/Src/stm32l4xx_hal_timebase_tim.c **** /**
   3:Core/Src/stm32l4xx_hal_timebase_tim.c ****   ******************************************************************************
   4:Core/Src/stm32l4xx_hal_timebase_tim.c ****   * @file    stm32l4xx_hal_timebase_tim.c
   5:Core/Src/stm32l4xx_hal_timebase_tim.c ****   * @brief   HAL time base based on the hardware TIM.
   6:Core/Src/stm32l4xx_hal_timebase_tim.c ****   ******************************************************************************
   7:Core/Src/stm32l4xx_hal_timebase_tim.c ****   * @attention
   8:Core/Src/stm32l4xx_hal_timebase_tim.c ****   *
   9:Core/Src/stm32l4xx_hal_timebase_tim.c ****   * Copyright (c) 2024 STMicroelectronics.
  10:Core/Src/stm32l4xx_hal_timebase_tim.c ****   * All rights reserved.
  11:Core/Src/stm32l4xx_hal_timebase_tim.c ****   *
  12:Core/Src/stm32l4xx_hal_timebase_tim.c ****   * This software is licensed under terms that can be found in the LICENSE file
  13:Core/Src/stm32l4xx_hal_timebase_tim.c ****   * in the root directory of this software component.
  14:Core/Src/stm32l4xx_hal_timebase_tim.c ****   * If no LICENSE file comes with this software, it is provided AS-IS.
  15:Core/Src/stm32l4xx_hal_timebase_tim.c ****   *
  16:Core/Src/stm32l4xx_hal_timebase_tim.c ****   ******************************************************************************
  17:Core/Src/stm32l4xx_hal_timebase_tim.c ****   */
  18:Core/Src/stm32l4xx_hal_timebase_tim.c **** /* USER CODE END Header */
  19:Core/Src/stm32l4xx_hal_timebase_tim.c **** 
  20:Core/Src/stm32l4xx_hal_timebase_tim.c **** /* Includes ------------------------------------------------------------------*/
  21:Core/Src/stm32l4xx_hal_timebase_tim.c **** #include "stm32l4xx_hal.h"
  22:Core/Src/stm32l4xx_hal_timebase_tim.c **** #include "stm32l4xx_hal_tim.h"
  23:Core/Src/stm32l4xx_hal_timebase_tim.c **** 
  24:Core/Src/stm32l4xx_hal_timebase_tim.c **** /* Private typedef -----------------------------------------------------------*/
  25:Core/Src/stm32l4xx_hal_timebase_tim.c **** /* Private define ------------------------------------------------------------*/
  26:Core/Src/stm32l4xx_hal_timebase_tim.c **** /* Private macro -------------------------------------------------------------*/
  27:Core/Src/stm32l4xx_hal_timebase_tim.c **** /* Private variables ---------------------------------------------------------*/
  28:Core/Src/stm32l4xx_hal_timebase_tim.c **** TIM_HandleTypeDef        htim6;
  29:Core/Src/stm32l4xx_hal_timebase_tim.c **** /* Private function prototypes -----------------------------------------------*/
ARM GAS  C:\Users\Jakob\AppData\Local\Temp\ccOWkJ4j.s 			page 2


  30:Core/Src/stm32l4xx_hal_timebase_tim.c **** /* Private functions ---------------------------------------------------------*/
  31:Core/Src/stm32l4xx_hal_timebase_tim.c **** 
  32:Core/Src/stm32l4xx_hal_timebase_tim.c **** /**
  33:Core/Src/stm32l4xx_hal_timebase_tim.c ****   * @brief  This function configures the TIM6 as a time base source.
  34:Core/Src/stm32l4xx_hal_timebase_tim.c ****   *         The time source is configured  to have 1ms time base with a dedicated
  35:Core/Src/stm32l4xx_hal_timebase_tim.c ****   *         Tick interrupt priority.
  36:Core/Src/stm32l4xx_hal_timebase_tim.c ****   * @note   This function is called  automatically at the beginning of program after
  37:Core/Src/stm32l4xx_hal_timebase_tim.c ****   *         reset by HAL_Init() or at any time when clock is configured, by HAL_RCC_ClockConfig().
  38:Core/Src/stm32l4xx_hal_timebase_tim.c ****   * @param  TickPriority: Tick interrupt priority.
  39:Core/Src/stm32l4xx_hal_timebase_tim.c ****   * @retval HAL status
  40:Core/Src/stm32l4xx_hal_timebase_tim.c ****   */
  41:Core/Src/stm32l4xx_hal_timebase_tim.c **** HAL_StatusTypeDef HAL_InitTick(uint32_t TickPriority)
  42:Core/Src/stm32l4xx_hal_timebase_tim.c **** {
  30              		.loc 1 42 1 view -0
  31              		.cfi_startproc
  32              		@ args = 0, pretend = 0, frame = 32
  33              		@ frame_needed = 0, uses_anonymous_args = 0
  34              		.loc 1 42 1 is_stmt 0 view .LVU1
  35 0000 30B5     		push	{r4, r5, lr}
  36              	.LCFI0:
  37              		.cfi_def_cfa_offset 12
  38              		.cfi_offset 4, -12
  39              		.cfi_offset 5, -8
  40              		.cfi_offset 14, -4
  41 0002 89B0     		sub	sp, sp, #36
  42              	.LCFI1:
  43              		.cfi_def_cfa_offset 48
  44 0004 0446     		mov	r4, r0
  43:Core/Src/stm32l4xx_hal_timebase_tim.c ****   RCC_ClkInitTypeDef    clkconfig;
  45              		.loc 1 43 3 is_stmt 1 view .LVU2
  44:Core/Src/stm32l4xx_hal_timebase_tim.c ****   uint32_t              uwTimclock, uwAPB1Prescaler;
  46              		.loc 1 44 3 view .LVU3
  45:Core/Src/stm32l4xx_hal_timebase_tim.c **** 
  46:Core/Src/stm32l4xx_hal_timebase_tim.c ****   uint32_t              uwPrescalerValue;
  47              		.loc 1 46 3 view .LVU4
  47:Core/Src/stm32l4xx_hal_timebase_tim.c ****   uint32_t              pFLatency;
  48              		.loc 1 47 3 view .LVU5
  48:Core/Src/stm32l4xx_hal_timebase_tim.c ****   HAL_StatusTypeDef     status = HAL_OK;
  49              		.loc 1 48 3 view .LVU6
  50              	.LVL1:
  49:Core/Src/stm32l4xx_hal_timebase_tim.c **** 
  50:Core/Src/stm32l4xx_hal_timebase_tim.c ****   /* Enable TIM6 clock */
  51:Core/Src/stm32l4xx_hal_timebase_tim.c ****   __HAL_RCC_TIM6_CLK_ENABLE();
  51              		.loc 1 51 3 view .LVU7
  52              	.LBB2:
  53              		.loc 1 51 3 view .LVU8
  54              		.loc 1 51 3 view .LVU9
  55 0006 214B     		ldr	r3, .L9
  56 0008 9A6D     		ldr	r2, [r3, #88]
  57 000a 42F01002 		orr	r2, r2, #16
  58 000e 9A65     		str	r2, [r3, #88]
  59              		.loc 1 51 3 view .LVU10
  60 0010 9B6D     		ldr	r3, [r3, #88]
  61 0012 03F01003 		and	r3, r3, #16
  62 0016 0193     		str	r3, [sp, #4]
  63              		.loc 1 51 3 view .LVU11
  64 0018 019B     		ldr	r3, [sp, #4]
ARM GAS  C:\Users\Jakob\AppData\Local\Temp\ccOWkJ4j.s 			page 3


  65              	.LBE2:
  66              		.loc 1 51 3 view .LVU12
  52:Core/Src/stm32l4xx_hal_timebase_tim.c **** 
  53:Core/Src/stm32l4xx_hal_timebase_tim.c ****   /* Get clock configuration */
  54:Core/Src/stm32l4xx_hal_timebase_tim.c ****   HAL_RCC_GetClockConfig(&clkconfig, &pFLatency);
  67              		.loc 1 54 3 view .LVU13
  68 001a 02A9     		add	r1, sp, #8
  69 001c 03A8     		add	r0, sp, #12
  70              	.LVL2:
  71              		.loc 1 54 3 is_stmt 0 view .LVU14
  72 001e FFF7FEFF 		bl	HAL_RCC_GetClockConfig
  73              	.LVL3:
  55:Core/Src/stm32l4xx_hal_timebase_tim.c **** 
  56:Core/Src/stm32l4xx_hal_timebase_tim.c ****   /* Get APB1 prescaler */
  57:Core/Src/stm32l4xx_hal_timebase_tim.c ****   uwAPB1Prescaler = clkconfig.APB1CLKDivider;
  74              		.loc 1 57 3 is_stmt 1 view .LVU15
  75              		.loc 1 57 19 is_stmt 0 view .LVU16
  76 0022 069B     		ldr	r3, [sp, #24]
  77              	.LVL4:
  58:Core/Src/stm32l4xx_hal_timebase_tim.c ****   /* Compute TIM6 clock */
  59:Core/Src/stm32l4xx_hal_timebase_tim.c ****   if (uwAPB1Prescaler == RCC_HCLK_DIV1)
  78              		.loc 1 59 3 is_stmt 1 view .LVU17
  79              		.loc 1 59 6 is_stmt 0 view .LVU18
  80 0024 CBB9     		cbnz	r3, .L2
  60:Core/Src/stm32l4xx_hal_timebase_tim.c ****   {
  61:Core/Src/stm32l4xx_hal_timebase_tim.c ****     uwTimclock = HAL_RCC_GetPCLK1Freq();
  81              		.loc 1 61 5 is_stmt 1 view .LVU19
  82              		.loc 1 61 18 is_stmt 0 view .LVU20
  83 0026 FFF7FEFF 		bl	HAL_RCC_GetPCLK1Freq
  84              	.LVL5:
  85              		.loc 1 61 18 view .LVU21
  86 002a 0346     		mov	r3, r0
  87              	.LVL6:
  88              	.L3:
  62:Core/Src/stm32l4xx_hal_timebase_tim.c ****   }
  63:Core/Src/stm32l4xx_hal_timebase_tim.c ****   else
  64:Core/Src/stm32l4xx_hal_timebase_tim.c ****   {
  65:Core/Src/stm32l4xx_hal_timebase_tim.c ****     uwTimclock = 2UL * HAL_RCC_GetPCLK1Freq();
  66:Core/Src/stm32l4xx_hal_timebase_tim.c ****   }
  67:Core/Src/stm32l4xx_hal_timebase_tim.c **** 
  68:Core/Src/stm32l4xx_hal_timebase_tim.c ****   /* Compute the prescaler value to have TIM6 counter clock equal to 1MHz */
  69:Core/Src/stm32l4xx_hal_timebase_tim.c ****   uwPrescalerValue = (uint32_t) ((uwTimclock / 1000000U) - 1U);
  89              		.loc 1 69 3 is_stmt 1 view .LVU22
  90              		.loc 1 69 46 is_stmt 0 view .LVU23
  91 002c 184A     		ldr	r2, .L9+4
  92 002e A2FB0323 		umull	r2, r3, r2, r3
  93              	.LVL7:
  94              		.loc 1 69 46 view .LVU24
  95 0032 9B0C     		lsrs	r3, r3, #18
  96              		.loc 1 69 20 view .LVU25
  97 0034 013B     		subs	r3, r3, #1
  98              	.LVL8:
  70:Core/Src/stm32l4xx_hal_timebase_tim.c **** 
  71:Core/Src/stm32l4xx_hal_timebase_tim.c ****   /* Initialize TIM6 */
  72:Core/Src/stm32l4xx_hal_timebase_tim.c ****   htim6.Instance = TIM6;
  99              		.loc 1 72 3 is_stmt 1 view .LVU26
 100              		.loc 1 72 18 is_stmt 0 view .LVU27
ARM GAS  C:\Users\Jakob\AppData\Local\Temp\ccOWkJ4j.s 			page 4


 101 0036 1748     		ldr	r0, .L9+8
 102 0038 174A     		ldr	r2, .L9+12
 103 003a 0260     		str	r2, [r0]
  73:Core/Src/stm32l4xx_hal_timebase_tim.c **** 
  74:Core/Src/stm32l4xx_hal_timebase_tim.c ****   /* Initialize TIMx peripheral as follow:
  75:Core/Src/stm32l4xx_hal_timebase_tim.c **** 
  76:Core/Src/stm32l4xx_hal_timebase_tim.c ****   + Period = [(TIM6CLK/1000) - 1]. to have a (1/1000) s time base.
  77:Core/Src/stm32l4xx_hal_timebase_tim.c ****   + Prescaler = (uwTimclock/1000000 - 1) to have a 1MHz counter clock.
  78:Core/Src/stm32l4xx_hal_timebase_tim.c ****   + ClockDivision = 0
  79:Core/Src/stm32l4xx_hal_timebase_tim.c ****   + Counter direction = Up
  80:Core/Src/stm32l4xx_hal_timebase_tim.c ****   */
  81:Core/Src/stm32l4xx_hal_timebase_tim.c ****   htim6.Init.Period = (1000000U / 1000U) - 1U;
 104              		.loc 1 81 3 is_stmt 1 view .LVU28
 105              		.loc 1 81 21 is_stmt 0 view .LVU29
 106 003c 40F2E732 		movw	r2, #999
 107 0040 C260     		str	r2, [r0, #12]
  82:Core/Src/stm32l4xx_hal_timebase_tim.c ****   htim6.Init.Prescaler = uwPrescalerValue;
 108              		.loc 1 82 3 is_stmt 1 view .LVU30
 109              		.loc 1 82 24 is_stmt 0 view .LVU31
 110 0042 4360     		str	r3, [r0, #4]
  83:Core/Src/stm32l4xx_hal_timebase_tim.c ****   htim6.Init.ClockDivision = 0;
 111              		.loc 1 83 3 is_stmt 1 view .LVU32
 112              		.loc 1 83 28 is_stmt 0 view .LVU33
 113 0044 0023     		movs	r3, #0
 114              	.LVL9:
 115              		.loc 1 83 28 view .LVU34
 116 0046 0361     		str	r3, [r0, #16]
  84:Core/Src/stm32l4xx_hal_timebase_tim.c ****   htim6.Init.CounterMode = TIM_COUNTERMODE_UP;
 117              		.loc 1 84 3 is_stmt 1 view .LVU35
 118              		.loc 1 84 26 is_stmt 0 view .LVU36
 119 0048 8360     		str	r3, [r0, #8]
  85:Core/Src/stm32l4xx_hal_timebase_tim.c ****   htim6.Init.AutoReloadPreload = TIM_AUTORELOAD_PRELOAD_DISABLE;
 120              		.loc 1 85 3 is_stmt 1 view .LVU37
 121              		.loc 1 85 32 is_stmt 0 view .LVU38
 122 004a 8361     		str	r3, [r0, #24]
  86:Core/Src/stm32l4xx_hal_timebase_tim.c **** 
  87:Core/Src/stm32l4xx_hal_timebase_tim.c ****   status = HAL_TIM_Base_Init(&htim6);
 123              		.loc 1 87 3 is_stmt 1 view .LVU39
 124              		.loc 1 87 12 is_stmt 0 view .LVU40
 125 004c FFF7FEFF 		bl	HAL_TIM_Base_Init
 126              	.LVL10:
  88:Core/Src/stm32l4xx_hal_timebase_tim.c ****   if (status == HAL_OK)
 127              		.loc 1 88 3 is_stmt 1 view .LVU41
 128              		.loc 1 88 6 is_stmt 0 view .LVU42
 129 0050 0546     		mov	r5, r0
 130 0052 30B1     		cbz	r0, .L7
 131              	.LVL11:
 132              	.L4:
  89:Core/Src/stm32l4xx_hal_timebase_tim.c ****   {
  90:Core/Src/stm32l4xx_hal_timebase_tim.c ****     /* Start the TIM time Base generation in interrupt mode */
  91:Core/Src/stm32l4xx_hal_timebase_tim.c ****     status = HAL_TIM_Base_Start_IT(&htim6);
  92:Core/Src/stm32l4xx_hal_timebase_tim.c ****     if (status == HAL_OK)
  93:Core/Src/stm32l4xx_hal_timebase_tim.c ****     {
  94:Core/Src/stm32l4xx_hal_timebase_tim.c ****     /* Enable the TIM6 global Interrupt */
  95:Core/Src/stm32l4xx_hal_timebase_tim.c ****         HAL_NVIC_EnableIRQ(TIM6_DAC_IRQn);
  96:Core/Src/stm32l4xx_hal_timebase_tim.c ****       /* Configure the SysTick IRQ priority */
  97:Core/Src/stm32l4xx_hal_timebase_tim.c ****       if (TickPriority < (1UL << __NVIC_PRIO_BITS))
ARM GAS  C:\Users\Jakob\AppData\Local\Temp\ccOWkJ4j.s 			page 5


  98:Core/Src/stm32l4xx_hal_timebase_tim.c ****       {
  99:Core/Src/stm32l4xx_hal_timebase_tim.c ****         /* Configure the TIM IRQ priority */
 100:Core/Src/stm32l4xx_hal_timebase_tim.c ****         HAL_NVIC_SetPriority(TIM6_DAC_IRQn, TickPriority, 0U);
 101:Core/Src/stm32l4xx_hal_timebase_tim.c ****         uwTickPrio = TickPriority;
 102:Core/Src/stm32l4xx_hal_timebase_tim.c ****       }
 103:Core/Src/stm32l4xx_hal_timebase_tim.c ****       else
 104:Core/Src/stm32l4xx_hal_timebase_tim.c ****       {
 105:Core/Src/stm32l4xx_hal_timebase_tim.c ****         status = HAL_ERROR;
 106:Core/Src/stm32l4xx_hal_timebase_tim.c ****       }
 107:Core/Src/stm32l4xx_hal_timebase_tim.c ****     }
 108:Core/Src/stm32l4xx_hal_timebase_tim.c ****   }
 109:Core/Src/stm32l4xx_hal_timebase_tim.c **** 
 110:Core/Src/stm32l4xx_hal_timebase_tim.c ****  /* Return function status */
 111:Core/Src/stm32l4xx_hal_timebase_tim.c ****   return status;
 133              		.loc 1 111 3 is_stmt 1 view .LVU43
 112:Core/Src/stm32l4xx_hal_timebase_tim.c **** }
 134              		.loc 1 112 1 is_stmt 0 view .LVU44
 135 0054 2846     		mov	r0, r5
 136 0056 09B0     		add	sp, sp, #36
 137              	.LCFI2:
 138              		.cfi_remember_state
 139              		.cfi_def_cfa_offset 12
 140              		@ sp needed
 141 0058 30BD     		pop	{r4, r5, pc}
 142              	.LVL12:
 143              	.L2:
 144              	.LCFI3:
 145              		.cfi_restore_state
  65:Core/Src/stm32l4xx_hal_timebase_tim.c ****   }
 146              		.loc 1 65 5 is_stmt 1 view .LVU45
  65:Core/Src/stm32l4xx_hal_timebase_tim.c ****   }
 147              		.loc 1 65 24 is_stmt 0 view .LVU46
 148 005a FFF7FEFF 		bl	HAL_RCC_GetPCLK1Freq
 149              	.LVL13:
  65:Core/Src/stm32l4xx_hal_timebase_tim.c ****   }
 150              		.loc 1 65 16 discriminator 1 view .LVU47
 151 005e 4300     		lsls	r3, r0, #1
 152              	.LVL14:
  65:Core/Src/stm32l4xx_hal_timebase_tim.c ****   }
 153              		.loc 1 65 16 discriminator 1 view .LVU48
 154 0060 E4E7     		b	.L3
 155              	.LVL15:
 156              	.L7:
  91:Core/Src/stm32l4xx_hal_timebase_tim.c ****     if (status == HAL_OK)
 157              		.loc 1 91 5 is_stmt 1 view .LVU49
  91:Core/Src/stm32l4xx_hal_timebase_tim.c ****     if (status == HAL_OK)
 158              		.loc 1 91 14 is_stmt 0 view .LVU50
 159 0062 0C48     		ldr	r0, .L9+8
 160              	.LVL16:
  91:Core/Src/stm32l4xx_hal_timebase_tim.c ****     if (status == HAL_OK)
 161              		.loc 1 91 14 view .LVU51
 162 0064 FFF7FEFF 		bl	HAL_TIM_Base_Start_IT
 163              	.LVL17:
  92:Core/Src/stm32l4xx_hal_timebase_tim.c ****     {
 164              		.loc 1 92 5 is_stmt 1 view .LVU52
  92:Core/Src/stm32l4xx_hal_timebase_tim.c ****     {
 165              		.loc 1 92 8 is_stmt 0 view .LVU53
ARM GAS  C:\Users\Jakob\AppData\Local\Temp\ccOWkJ4j.s 			page 6


 166 0068 0546     		mov	r5, r0
 167 006a 0028     		cmp	r0, #0
 168 006c F2D1     		bne	.L4
  95:Core/Src/stm32l4xx_hal_timebase_tim.c ****       /* Configure the SysTick IRQ priority */
 169              		.loc 1 95 9 is_stmt 1 view .LVU54
 170 006e 3620     		movs	r0, #54
 171              	.LVL18:
  95:Core/Src/stm32l4xx_hal_timebase_tim.c ****       /* Configure the SysTick IRQ priority */
 172              		.loc 1 95 9 is_stmt 0 view .LVU55
 173 0070 FFF7FEFF 		bl	HAL_NVIC_EnableIRQ
 174              	.LVL19:
  97:Core/Src/stm32l4xx_hal_timebase_tim.c ****       {
 175              		.loc 1 97 7 is_stmt 1 view .LVU56
  97:Core/Src/stm32l4xx_hal_timebase_tim.c ****       {
 176              		.loc 1 97 10 is_stmt 0 view .LVU57
 177 0074 0F2C     		cmp	r4, #15
 178 0076 01D9     		bls	.L8
 105:Core/Src/stm32l4xx_hal_timebase_tim.c ****       }
 179              		.loc 1 105 16 view .LVU58
 180 0078 0125     		movs	r5, #1
 181              	.LVL20:
 105:Core/Src/stm32l4xx_hal_timebase_tim.c ****       }
 182              		.loc 1 105 16 view .LVU59
 183 007a EBE7     		b	.L4
 184              	.LVL21:
 185              	.L8:
 100:Core/Src/stm32l4xx_hal_timebase_tim.c ****         uwTickPrio = TickPriority;
 186              		.loc 1 100 9 is_stmt 1 view .LVU60
 187 007c 0022     		movs	r2, #0
 188 007e 2146     		mov	r1, r4
 189 0080 3620     		movs	r0, #54
 190 0082 FFF7FEFF 		bl	HAL_NVIC_SetPriority
 191              	.LVL22:
 101:Core/Src/stm32l4xx_hal_timebase_tim.c ****       }
 192              		.loc 1 101 9 view .LVU61
 101:Core/Src/stm32l4xx_hal_timebase_tim.c ****       }
 193              		.loc 1 101 20 is_stmt 0 view .LVU62
 194 0086 054B     		ldr	r3, .L9+16
 195 0088 1C60     		str	r4, [r3]
 196 008a E3E7     		b	.L4
 197              	.L10:
 198              		.align	2
 199              	.L9:
 200 008c 00100240 		.word	1073876992
 201 0090 83DE1B43 		.word	1125899907
 202 0094 00000000 		.word	htim6
 203 0098 00100040 		.word	1073745920
 204 009c 00000000 		.word	uwTickPrio
 205              		.cfi_endproc
 206              	.LFE132:
 208              		.section	.text.HAL_SuspendTick,"ax",%progbits
 209              		.align	1
 210              		.global	HAL_SuspendTick
 211              		.syntax unified
 212              		.thumb
 213              		.thumb_func
 215              	HAL_SuspendTick:
ARM GAS  C:\Users\Jakob\AppData\Local\Temp\ccOWkJ4j.s 			page 7


 216              	.LFB133:
 113:Core/Src/stm32l4xx_hal_timebase_tim.c **** 
 114:Core/Src/stm32l4xx_hal_timebase_tim.c **** /**
 115:Core/Src/stm32l4xx_hal_timebase_tim.c ****   * @brief  Suspend Tick increment.
 116:Core/Src/stm32l4xx_hal_timebase_tim.c ****   * @note   Disable the tick increment by disabling TIM6 update interrupt.
 117:Core/Src/stm32l4xx_hal_timebase_tim.c ****   * @param  None
 118:Core/Src/stm32l4xx_hal_timebase_tim.c ****   * @retval None
 119:Core/Src/stm32l4xx_hal_timebase_tim.c ****   */
 120:Core/Src/stm32l4xx_hal_timebase_tim.c **** void HAL_SuspendTick(void)
 121:Core/Src/stm32l4xx_hal_timebase_tim.c **** {
 217              		.loc 1 121 1 is_stmt 1 view -0
 218              		.cfi_startproc
 219              		@ args = 0, pretend = 0, frame = 0
 220              		@ frame_needed = 0, uses_anonymous_args = 0
 221              		@ link register save eliminated.
 122:Core/Src/stm32l4xx_hal_timebase_tim.c ****   /* Disable TIM6 update Interrupt */
 123:Core/Src/stm32l4xx_hal_timebase_tim.c ****   __HAL_TIM_DISABLE_IT(&htim6, TIM_IT_UPDATE);
 222              		.loc 1 123 3 view .LVU64
 223 0000 034B     		ldr	r3, .L12
 224 0002 1A68     		ldr	r2, [r3]
 225 0004 D368     		ldr	r3, [r2, #12]
 226 0006 23F00103 		bic	r3, r3, #1
 227 000a D360     		str	r3, [r2, #12]
 124:Core/Src/stm32l4xx_hal_timebase_tim.c **** }
 228              		.loc 1 124 1 is_stmt 0 view .LVU65
 229 000c 7047     		bx	lr
 230              	.L13:
 231 000e 00BF     		.align	2
 232              	.L12:
 233 0010 00000000 		.word	htim6
 234              		.cfi_endproc
 235              	.LFE133:
 237              		.section	.text.HAL_ResumeTick,"ax",%progbits
 238              		.align	1
 239              		.global	HAL_ResumeTick
 240              		.syntax unified
 241              		.thumb
 242              		.thumb_func
 244              	HAL_ResumeTick:
 245              	.LFB134:
 125:Core/Src/stm32l4xx_hal_timebase_tim.c **** 
 126:Core/Src/stm32l4xx_hal_timebase_tim.c **** /**
 127:Core/Src/stm32l4xx_hal_timebase_tim.c ****   * @brief  Resume Tick increment.
 128:Core/Src/stm32l4xx_hal_timebase_tim.c ****   * @note   Enable the tick increment by Enabling TIM6 update interrupt.
 129:Core/Src/stm32l4xx_hal_timebase_tim.c ****   * @param  None
 130:Core/Src/stm32l4xx_hal_timebase_tim.c ****   * @retval None
 131:Core/Src/stm32l4xx_hal_timebase_tim.c ****   */
 132:Core/Src/stm32l4xx_hal_timebase_tim.c **** void HAL_ResumeTick(void)
 133:Core/Src/stm32l4xx_hal_timebase_tim.c **** {
 246              		.loc 1 133 1 is_stmt 1 view -0
 247              		.cfi_startproc
 248              		@ args = 0, pretend = 0, frame = 0
 249              		@ frame_needed = 0, uses_anonymous_args = 0
 250              		@ link register save eliminated.
 134:Core/Src/stm32l4xx_hal_timebase_tim.c ****   /* Enable TIM6 Update interrupt */
 135:Core/Src/stm32l4xx_hal_timebase_tim.c ****   __HAL_TIM_ENABLE_IT(&htim6, TIM_IT_UPDATE);
 251              		.loc 1 135 3 view .LVU67
ARM GAS  C:\Users\Jakob\AppData\Local\Temp\ccOWkJ4j.s 			page 8


 252 0000 034B     		ldr	r3, .L15
 253 0002 1A68     		ldr	r2, [r3]
 254 0004 D368     		ldr	r3, [r2, #12]
 255 0006 43F00103 		orr	r3, r3, #1
 256 000a D360     		str	r3, [r2, #12]
 136:Core/Src/stm32l4xx_hal_timebase_tim.c **** }
 257              		.loc 1 136 1 is_stmt 0 view .LVU68
 258 000c 7047     		bx	lr
 259              	.L16:
 260 000e 00BF     		.align	2
 261              	.L15:
 262 0010 00000000 		.word	htim6
 263              		.cfi_endproc
 264              	.LFE134:
 266              		.global	htim6
 267              		.section	.bss.htim6,"aw",%nobits
 268              		.align	2
 271              	htim6:
 272 0000 00000000 		.space	76
 272      00000000 
 272      00000000 
 272      00000000 
 272      00000000 
 273              		.text
 274              	.Letext0:
 275              		.file 2 "Drivers/CMSIS/Device/ST/STM32L4xx/Include/stm32l432xx.h"
 276              		.file 3 "C:/Program Files (x86)/Arm GNU Toolchain arm-none-eabi/13.2 Rel1/arm-none-eabi/include/ma
 277              		.file 4 "C:/Program Files (x86)/Arm GNU Toolchain arm-none-eabi/13.2 Rel1/arm-none-eabi/include/sy
 278              		.file 5 "Drivers/STM32L4xx_HAL_Driver/Inc/stm32l4xx_hal_def.h"
 279              		.file 6 "Drivers/STM32L4xx_HAL_Driver/Inc/stm32l4xx_hal_rcc.h"
 280              		.file 7 "Drivers/STM32L4xx_HAL_Driver/Inc/stm32l4xx_hal_dma.h"
 281              		.file 8 "Drivers/STM32L4xx_HAL_Driver/Inc/stm32l4xx_hal_tim.h"
 282              		.file 9 "Drivers/STM32L4xx_HAL_Driver/Inc/stm32l4xx_hal.h"
 283              		.file 10 "Drivers/STM32L4xx_HAL_Driver/Inc/stm32l4xx_hal_cortex.h"
ARM GAS  C:\Users\Jakob\AppData\Local\Temp\ccOWkJ4j.s 			page 9

