ARM GAS  C:\Users\Jakob\AppData\Local\Temp\cclvtDWl.s 			page 1


   1              		.cpu cortex-m4
   2              		.arch armv7e-m
   3              		.fpu fpv4-sp-d16
   4              		.eabi_attribute 27, 1
   5              		.eabi_attribute 28, 1
   6              		.eabi_attribute 20, 1
   7              		.eabi_attribute 21, 1
   8              		.eabi_attribute 23, 3
   9              		.eabi_attribute 24, 1
  10              		.eabi_attribute 25, 1
  11              		.eabi_attribute 26, 1
  12              		.eabi_attribute 30, 1
  13              		.eabi_attribute 34, 1
  14              		.eabi_attribute 18, 4
  15              		.file	"stm32l4xx_hal.c"
  16              		.text
  17              	.Ltext0:
  18              		.cfi_sections	.debug_frame
  19              		.file 1 "Drivers/STM32L4xx_HAL_Driver/Src/stm32l4xx_hal.c"
  20              		.section	.text.HAL_MspInit,"ax",%progbits
  21              		.align	1
  22              		.weak	HAL_MspInit
  23              		.syntax unified
  24              		.thumb
  25              		.thumb_func
  27              	HAL_MspInit:
  28              	.LFB134:
   1:Drivers/STM32L4xx_HAL_Driver/Src/stm32l4xx_hal.c **** /**
   2:Drivers/STM32L4xx_HAL_Driver/Src/stm32l4xx_hal.c ****   ******************************************************************************
   3:Drivers/STM32L4xx_HAL_Driver/Src/stm32l4xx_hal.c ****   * @file    stm32l4xx_hal.c
   4:Drivers/STM32L4xx_HAL_Driver/Src/stm32l4xx_hal.c ****   * @author  MCD Application Team
   5:Drivers/STM32L4xx_HAL_Driver/Src/stm32l4xx_hal.c ****   * @brief   HAL module driver.
   6:Drivers/STM32L4xx_HAL_Driver/Src/stm32l4xx_hal.c ****   *          This is the common part of the HAL initialization
   7:Drivers/STM32L4xx_HAL_Driver/Src/stm32l4xx_hal.c ****   *
   8:Drivers/STM32L4xx_HAL_Driver/Src/stm32l4xx_hal.c ****   ******************************************************************************
   9:Drivers/STM32L4xx_HAL_Driver/Src/stm32l4xx_hal.c ****   * @attention
  10:Drivers/STM32L4xx_HAL_Driver/Src/stm32l4xx_hal.c ****   *
  11:Drivers/STM32L4xx_HAL_Driver/Src/stm32l4xx_hal.c ****   * Copyright (c) 2017 STMicroelectronics.
  12:Drivers/STM32L4xx_HAL_Driver/Src/stm32l4xx_hal.c ****   * All rights reserved.
  13:Drivers/STM32L4xx_HAL_Driver/Src/stm32l4xx_hal.c ****   *
  14:Drivers/STM32L4xx_HAL_Driver/Src/stm32l4xx_hal.c ****   * This software is licensed under terms that can be found in the LICENSE file
  15:Drivers/STM32L4xx_HAL_Driver/Src/stm32l4xx_hal.c ****   * in the root directory of this software component.
  16:Drivers/STM32L4xx_HAL_Driver/Src/stm32l4xx_hal.c ****   * If no LICENSE file comes with this software, it is provided AS-IS.
  17:Drivers/STM32L4xx_HAL_Driver/Src/stm32l4xx_hal.c ****   *
  18:Drivers/STM32L4xx_HAL_Driver/Src/stm32l4xx_hal.c ****   ******************************************************************************
  19:Drivers/STM32L4xx_HAL_Driver/Src/stm32l4xx_hal.c ****   @verbatim
  20:Drivers/STM32L4xx_HAL_Driver/Src/stm32l4xx_hal.c ****   ==============================================================================
  21:Drivers/STM32L4xx_HAL_Driver/Src/stm32l4xx_hal.c ****                      ##### How to use this driver #####
  22:Drivers/STM32L4xx_HAL_Driver/Src/stm32l4xx_hal.c ****   ==============================================================================
  23:Drivers/STM32L4xx_HAL_Driver/Src/stm32l4xx_hal.c ****     [..]
  24:Drivers/STM32L4xx_HAL_Driver/Src/stm32l4xx_hal.c ****     The common HAL driver contains a set of generic and common APIs that can be
  25:Drivers/STM32L4xx_HAL_Driver/Src/stm32l4xx_hal.c ****     used by the PPP peripheral drivers and the user to start using the HAL.
  26:Drivers/STM32L4xx_HAL_Driver/Src/stm32l4xx_hal.c ****     [..]
  27:Drivers/STM32L4xx_HAL_Driver/Src/stm32l4xx_hal.c ****     The HAL contains two APIs' categories:
  28:Drivers/STM32L4xx_HAL_Driver/Src/stm32l4xx_hal.c ****          (+) Common HAL APIs
  29:Drivers/STM32L4xx_HAL_Driver/Src/stm32l4xx_hal.c ****          (+) Services HAL APIs
  30:Drivers/STM32L4xx_HAL_Driver/Src/stm32l4xx_hal.c **** 
ARM GAS  C:\Users\Jakob\AppData\Local\Temp\cclvtDWl.s 			page 2


  31:Drivers/STM32L4xx_HAL_Driver/Src/stm32l4xx_hal.c ****   @endverbatim
  32:Drivers/STM32L4xx_HAL_Driver/Src/stm32l4xx_hal.c ****   ******************************************************************************
  33:Drivers/STM32L4xx_HAL_Driver/Src/stm32l4xx_hal.c ****   */
  34:Drivers/STM32L4xx_HAL_Driver/Src/stm32l4xx_hal.c **** 
  35:Drivers/STM32L4xx_HAL_Driver/Src/stm32l4xx_hal.c **** /* Includes ------------------------------------------------------------------*/
  36:Drivers/STM32L4xx_HAL_Driver/Src/stm32l4xx_hal.c **** #include "stm32l4xx_hal.h"
  37:Drivers/STM32L4xx_HAL_Driver/Src/stm32l4xx_hal.c **** 
  38:Drivers/STM32L4xx_HAL_Driver/Src/stm32l4xx_hal.c **** /** @addtogroup STM32L4xx_HAL_Driver
  39:Drivers/STM32L4xx_HAL_Driver/Src/stm32l4xx_hal.c ****   * @{
  40:Drivers/STM32L4xx_HAL_Driver/Src/stm32l4xx_hal.c ****   */
  41:Drivers/STM32L4xx_HAL_Driver/Src/stm32l4xx_hal.c **** 
  42:Drivers/STM32L4xx_HAL_Driver/Src/stm32l4xx_hal.c **** /** @defgroup HAL HAL
  43:Drivers/STM32L4xx_HAL_Driver/Src/stm32l4xx_hal.c ****   * @brief HAL module driver
  44:Drivers/STM32L4xx_HAL_Driver/Src/stm32l4xx_hal.c ****   * @{
  45:Drivers/STM32L4xx_HAL_Driver/Src/stm32l4xx_hal.c ****   */
  46:Drivers/STM32L4xx_HAL_Driver/Src/stm32l4xx_hal.c **** 
  47:Drivers/STM32L4xx_HAL_Driver/Src/stm32l4xx_hal.c **** #ifdef HAL_MODULE_ENABLED
  48:Drivers/STM32L4xx_HAL_Driver/Src/stm32l4xx_hal.c **** 
  49:Drivers/STM32L4xx_HAL_Driver/Src/stm32l4xx_hal.c **** /* Private typedef -----------------------------------------------------------*/
  50:Drivers/STM32L4xx_HAL_Driver/Src/stm32l4xx_hal.c **** /* Private define ------------------------------------------------------------*/
  51:Drivers/STM32L4xx_HAL_Driver/Src/stm32l4xx_hal.c **** /**
  52:Drivers/STM32L4xx_HAL_Driver/Src/stm32l4xx_hal.c ****  * @brief STM32L4xx HAL Driver version number
  53:Drivers/STM32L4xx_HAL_Driver/Src/stm32l4xx_hal.c ****    */
  54:Drivers/STM32L4xx_HAL_Driver/Src/stm32l4xx_hal.c **** #define STM32L4XX_HAL_VERSION_MAIN   (0x01U) /*!< [31:24] main version */
  55:Drivers/STM32L4xx_HAL_Driver/Src/stm32l4xx_hal.c **** #define STM32L4XX_HAL_VERSION_SUB1   (0x0DU) /*!< [23:16] sub1 version */
  56:Drivers/STM32L4xx_HAL_Driver/Src/stm32l4xx_hal.c **** #define STM32L4XX_HAL_VERSION_SUB2   (0x04U) /*!< [15:8]  sub2 version */
  57:Drivers/STM32L4xx_HAL_Driver/Src/stm32l4xx_hal.c **** #define STM32L4XX_HAL_VERSION_RC     (0x00U) /*!< [7:0]  release candidate */
  58:Drivers/STM32L4xx_HAL_Driver/Src/stm32l4xx_hal.c **** #define STM32L4XX_HAL_VERSION        ((STM32L4XX_HAL_VERSION_MAIN  << 24U)\
  59:Drivers/STM32L4xx_HAL_Driver/Src/stm32l4xx_hal.c ****                                       |(STM32L4XX_HAL_VERSION_SUB1 << 16U)\
  60:Drivers/STM32L4xx_HAL_Driver/Src/stm32l4xx_hal.c ****                                       |(STM32L4XX_HAL_VERSION_SUB2 << 8U)\
  61:Drivers/STM32L4xx_HAL_Driver/Src/stm32l4xx_hal.c ****                                       |(STM32L4XX_HAL_VERSION_RC))
  62:Drivers/STM32L4xx_HAL_Driver/Src/stm32l4xx_hal.c **** 
  63:Drivers/STM32L4xx_HAL_Driver/Src/stm32l4xx_hal.c **** #if defined(VREFBUF)
  64:Drivers/STM32L4xx_HAL_Driver/Src/stm32l4xx_hal.c **** #define VREFBUF_TIMEOUT_VALUE     10U   /* 10 ms (to be confirmed) */
  65:Drivers/STM32L4xx_HAL_Driver/Src/stm32l4xx_hal.c **** #endif /* VREFBUF */
  66:Drivers/STM32L4xx_HAL_Driver/Src/stm32l4xx_hal.c **** 
  67:Drivers/STM32L4xx_HAL_Driver/Src/stm32l4xx_hal.c **** /* ------------ SYSCFG registers bit address in the alias region ------------ */
  68:Drivers/STM32L4xx_HAL_Driver/Src/stm32l4xx_hal.c **** #define SYSCFG_OFFSET             (SYSCFG_BASE - PERIPH_BASE)
  69:Drivers/STM32L4xx_HAL_Driver/Src/stm32l4xx_hal.c **** /* ---  MEMRMP Register ---*/
  70:Drivers/STM32L4xx_HAL_Driver/Src/stm32l4xx_hal.c **** /* Alias word address of FB_MODE bit */
  71:Drivers/STM32L4xx_HAL_Driver/Src/stm32l4xx_hal.c **** #define MEMRMP_OFFSET             SYSCFG_OFFSET
  72:Drivers/STM32L4xx_HAL_Driver/Src/stm32l4xx_hal.c **** #define FB_MODE_BitNumber         8U
  73:Drivers/STM32L4xx_HAL_Driver/Src/stm32l4xx_hal.c **** #define FB_MODE_BB                (PERIPH_BB_BASE + (MEMRMP_OFFSET * 32U) + (FB_MODE_BitNumber * 4U
  74:Drivers/STM32L4xx_HAL_Driver/Src/stm32l4xx_hal.c **** 
  75:Drivers/STM32L4xx_HAL_Driver/Src/stm32l4xx_hal.c **** /* --- SCSR Register ---*/
  76:Drivers/STM32L4xx_HAL_Driver/Src/stm32l4xx_hal.c **** /* Alias word address of SRAM2ER bit */
  77:Drivers/STM32L4xx_HAL_Driver/Src/stm32l4xx_hal.c **** #define SCSR_OFFSET               (SYSCFG_OFFSET + 0x18U)
  78:Drivers/STM32L4xx_HAL_Driver/Src/stm32l4xx_hal.c **** #define BRER_BitNumber            0U
  79:Drivers/STM32L4xx_HAL_Driver/Src/stm32l4xx_hal.c **** #define SCSR_SRAM2ER_BB           (PERIPH_BB_BASE + (SCSR_OFFSET * 32U) + (BRER_BitNumber * 4U))
  80:Drivers/STM32L4xx_HAL_Driver/Src/stm32l4xx_hal.c **** 
  81:Drivers/STM32L4xx_HAL_Driver/Src/stm32l4xx_hal.c **** /* Private macro -------------------------------------------------------------*/
  82:Drivers/STM32L4xx_HAL_Driver/Src/stm32l4xx_hal.c **** /* Private variables ---------------------------------------------------------*/
  83:Drivers/STM32L4xx_HAL_Driver/Src/stm32l4xx_hal.c **** /* Private function prototypes -----------------------------------------------*/
  84:Drivers/STM32L4xx_HAL_Driver/Src/stm32l4xx_hal.c **** 
  85:Drivers/STM32L4xx_HAL_Driver/Src/stm32l4xx_hal.c **** /* Exported variables --------------------------------------------------------*/
  86:Drivers/STM32L4xx_HAL_Driver/Src/stm32l4xx_hal.c **** 
  87:Drivers/STM32L4xx_HAL_Driver/Src/stm32l4xx_hal.c **** /** @defgroup HAL_Exported_Variables HAL Exported Variables
ARM GAS  C:\Users\Jakob\AppData\Local\Temp\cclvtDWl.s 			page 3


  88:Drivers/STM32L4xx_HAL_Driver/Src/stm32l4xx_hal.c ****   * @{
  89:Drivers/STM32L4xx_HAL_Driver/Src/stm32l4xx_hal.c ****   */
  90:Drivers/STM32L4xx_HAL_Driver/Src/stm32l4xx_hal.c **** __IO uint32_t uwTick;
  91:Drivers/STM32L4xx_HAL_Driver/Src/stm32l4xx_hal.c **** uint32_t uwTickPrio = (1UL << __NVIC_PRIO_BITS); /* Invalid priority */
  92:Drivers/STM32L4xx_HAL_Driver/Src/stm32l4xx_hal.c **** HAL_TickFreqTypeDef uwTickFreq = HAL_TICK_FREQ_DEFAULT;  /* 1KHz */
  93:Drivers/STM32L4xx_HAL_Driver/Src/stm32l4xx_hal.c **** /**
  94:Drivers/STM32L4xx_HAL_Driver/Src/stm32l4xx_hal.c ****   * @}
  95:Drivers/STM32L4xx_HAL_Driver/Src/stm32l4xx_hal.c ****   */
  96:Drivers/STM32L4xx_HAL_Driver/Src/stm32l4xx_hal.c **** 
  97:Drivers/STM32L4xx_HAL_Driver/Src/stm32l4xx_hal.c **** /* Exported functions --------------------------------------------------------*/
  98:Drivers/STM32L4xx_HAL_Driver/Src/stm32l4xx_hal.c **** 
  99:Drivers/STM32L4xx_HAL_Driver/Src/stm32l4xx_hal.c **** /** @defgroup HAL_Exported_Functions HAL Exported Functions
 100:Drivers/STM32L4xx_HAL_Driver/Src/stm32l4xx_hal.c ****   * @{
 101:Drivers/STM32L4xx_HAL_Driver/Src/stm32l4xx_hal.c ****   */
 102:Drivers/STM32L4xx_HAL_Driver/Src/stm32l4xx_hal.c **** 
 103:Drivers/STM32L4xx_HAL_Driver/Src/stm32l4xx_hal.c **** /** @defgroup HAL_Exported_Functions_Group1 Initialization and de-initialization Functions
 104:Drivers/STM32L4xx_HAL_Driver/Src/stm32l4xx_hal.c ****  *  @brief    Initialization and de-initialization functions
 105:Drivers/STM32L4xx_HAL_Driver/Src/stm32l4xx_hal.c ****  *
 106:Drivers/STM32L4xx_HAL_Driver/Src/stm32l4xx_hal.c **** @verbatim
 107:Drivers/STM32L4xx_HAL_Driver/Src/stm32l4xx_hal.c ****  ===============================================================================
 108:Drivers/STM32L4xx_HAL_Driver/Src/stm32l4xx_hal.c ****               ##### Initialization and de-initialization functions #####
 109:Drivers/STM32L4xx_HAL_Driver/Src/stm32l4xx_hal.c ****  ===============================================================================
 110:Drivers/STM32L4xx_HAL_Driver/Src/stm32l4xx_hal.c ****     [..]  This section provides functions allowing to:
 111:Drivers/STM32L4xx_HAL_Driver/Src/stm32l4xx_hal.c ****       (+) Initialize the Flash interface, the NVIC allocation and initial time base
 112:Drivers/STM32L4xx_HAL_Driver/Src/stm32l4xx_hal.c ****           clock configuration.
 113:Drivers/STM32L4xx_HAL_Driver/Src/stm32l4xx_hal.c ****       (+) De-initialize common part of the HAL.
 114:Drivers/STM32L4xx_HAL_Driver/Src/stm32l4xx_hal.c ****       (+) Configure the time base source to have 1ms time base with a dedicated
 115:Drivers/STM32L4xx_HAL_Driver/Src/stm32l4xx_hal.c ****           Tick interrupt priority.
 116:Drivers/STM32L4xx_HAL_Driver/Src/stm32l4xx_hal.c ****         (++) SysTick timer is used by default as source of time base, but user
 117:Drivers/STM32L4xx_HAL_Driver/Src/stm32l4xx_hal.c ****              can eventually implement his proper time base source (a general purpose
 118:Drivers/STM32L4xx_HAL_Driver/Src/stm32l4xx_hal.c ****              timer for example or other time source), keeping in mind that Time base
 119:Drivers/STM32L4xx_HAL_Driver/Src/stm32l4xx_hal.c ****              duration should be kept 1ms since PPP_TIMEOUT_VALUEs are defined and
 120:Drivers/STM32L4xx_HAL_Driver/Src/stm32l4xx_hal.c ****              handled in milliseconds basis.
 121:Drivers/STM32L4xx_HAL_Driver/Src/stm32l4xx_hal.c ****         (++) Time base configuration function (HAL_InitTick ()) is called automatically
 122:Drivers/STM32L4xx_HAL_Driver/Src/stm32l4xx_hal.c ****              at the beginning of the program after reset by HAL_Init() or at any time
 123:Drivers/STM32L4xx_HAL_Driver/Src/stm32l4xx_hal.c ****              when clock is configured, by HAL_RCC_ClockConfig().
 124:Drivers/STM32L4xx_HAL_Driver/Src/stm32l4xx_hal.c ****         (++) Source of time base is configured  to generate interrupts at regular
 125:Drivers/STM32L4xx_HAL_Driver/Src/stm32l4xx_hal.c ****              time intervals. Care must be taken if HAL_Delay() is called from a
 126:Drivers/STM32L4xx_HAL_Driver/Src/stm32l4xx_hal.c ****              peripheral ISR process, the Tick interrupt line must have higher priority
 127:Drivers/STM32L4xx_HAL_Driver/Src/stm32l4xx_hal.c ****             (numerically lower) than the peripheral interrupt. Otherwise the caller
 128:Drivers/STM32L4xx_HAL_Driver/Src/stm32l4xx_hal.c ****             ISR process will be blocked.
 129:Drivers/STM32L4xx_HAL_Driver/Src/stm32l4xx_hal.c ****        (++) functions affecting time base configurations are declared as __weak
 130:Drivers/STM32L4xx_HAL_Driver/Src/stm32l4xx_hal.c ****              to make  override possible  in case of other  implementations in user file.
 131:Drivers/STM32L4xx_HAL_Driver/Src/stm32l4xx_hal.c **** @endverbatim
 132:Drivers/STM32L4xx_HAL_Driver/Src/stm32l4xx_hal.c ****   * @{
 133:Drivers/STM32L4xx_HAL_Driver/Src/stm32l4xx_hal.c ****   */
 134:Drivers/STM32L4xx_HAL_Driver/Src/stm32l4xx_hal.c **** 
 135:Drivers/STM32L4xx_HAL_Driver/Src/stm32l4xx_hal.c **** /**
 136:Drivers/STM32L4xx_HAL_Driver/Src/stm32l4xx_hal.c ****   * @brief  Configure the Flash prefetch, the Instruction and Data caches,
 137:Drivers/STM32L4xx_HAL_Driver/Src/stm32l4xx_hal.c ****   *         the time base source, NVIC and any required global low level hardware
 138:Drivers/STM32L4xx_HAL_Driver/Src/stm32l4xx_hal.c ****   *         by calling the HAL_MspInit() callback function to be optionally defined in user file
 139:Drivers/STM32L4xx_HAL_Driver/Src/stm32l4xx_hal.c ****   *         stm32l4xx_hal_msp.c.
 140:Drivers/STM32L4xx_HAL_Driver/Src/stm32l4xx_hal.c ****   *
 141:Drivers/STM32L4xx_HAL_Driver/Src/stm32l4xx_hal.c ****   * @note   HAL_Init() function is called at the beginning of program after reset and before
 142:Drivers/STM32L4xx_HAL_Driver/Src/stm32l4xx_hal.c ****   *         the clock configuration.
 143:Drivers/STM32L4xx_HAL_Driver/Src/stm32l4xx_hal.c ****   *
 144:Drivers/STM32L4xx_HAL_Driver/Src/stm32l4xx_hal.c ****   * @note   In the default implementation the System Timer (Systick) is used as source of time base
ARM GAS  C:\Users\Jakob\AppData\Local\Temp\cclvtDWl.s 			page 4


 145:Drivers/STM32L4xx_HAL_Driver/Src/stm32l4xx_hal.c ****   *         The Systick configuration is based on MSI clock, as MSI is the clock
 146:Drivers/STM32L4xx_HAL_Driver/Src/stm32l4xx_hal.c ****   *         used after a system Reset and the NVIC configuration is set to Priority group 4.
 147:Drivers/STM32L4xx_HAL_Driver/Src/stm32l4xx_hal.c ****   *         Once done, time base tick starts incrementing: the tick variable counter is incremented
 148:Drivers/STM32L4xx_HAL_Driver/Src/stm32l4xx_hal.c ****   *         each 1ms in the SysTick_Handler() interrupt handler.
 149:Drivers/STM32L4xx_HAL_Driver/Src/stm32l4xx_hal.c ****   *
 150:Drivers/STM32L4xx_HAL_Driver/Src/stm32l4xx_hal.c ****   * @retval HAL status
 151:Drivers/STM32L4xx_HAL_Driver/Src/stm32l4xx_hal.c ****   */
 152:Drivers/STM32L4xx_HAL_Driver/Src/stm32l4xx_hal.c **** HAL_StatusTypeDef HAL_Init(void)
 153:Drivers/STM32L4xx_HAL_Driver/Src/stm32l4xx_hal.c **** {
 154:Drivers/STM32L4xx_HAL_Driver/Src/stm32l4xx_hal.c ****   HAL_StatusTypeDef  status = HAL_OK;
 155:Drivers/STM32L4xx_HAL_Driver/Src/stm32l4xx_hal.c **** 
 156:Drivers/STM32L4xx_HAL_Driver/Src/stm32l4xx_hal.c ****   /* Configure Flash prefetch, Instruction cache, Data cache */
 157:Drivers/STM32L4xx_HAL_Driver/Src/stm32l4xx_hal.c ****   /* Default configuration at reset is:                      */
 158:Drivers/STM32L4xx_HAL_Driver/Src/stm32l4xx_hal.c ****   /* - Prefetch disabled                                     */
 159:Drivers/STM32L4xx_HAL_Driver/Src/stm32l4xx_hal.c ****   /* - Instruction cache enabled                             */
 160:Drivers/STM32L4xx_HAL_Driver/Src/stm32l4xx_hal.c ****   /* - Data cache enabled                                    */
 161:Drivers/STM32L4xx_HAL_Driver/Src/stm32l4xx_hal.c **** #if (INSTRUCTION_CACHE_ENABLE == 0)
 162:Drivers/STM32L4xx_HAL_Driver/Src/stm32l4xx_hal.c ****    __HAL_FLASH_INSTRUCTION_CACHE_DISABLE();
 163:Drivers/STM32L4xx_HAL_Driver/Src/stm32l4xx_hal.c **** #endif /* INSTRUCTION_CACHE_ENABLE */
 164:Drivers/STM32L4xx_HAL_Driver/Src/stm32l4xx_hal.c **** 
 165:Drivers/STM32L4xx_HAL_Driver/Src/stm32l4xx_hal.c **** #if (DATA_CACHE_ENABLE == 0)
 166:Drivers/STM32L4xx_HAL_Driver/Src/stm32l4xx_hal.c ****    __HAL_FLASH_DATA_CACHE_DISABLE();
 167:Drivers/STM32L4xx_HAL_Driver/Src/stm32l4xx_hal.c **** #endif /* DATA_CACHE_ENABLE */
 168:Drivers/STM32L4xx_HAL_Driver/Src/stm32l4xx_hal.c **** 
 169:Drivers/STM32L4xx_HAL_Driver/Src/stm32l4xx_hal.c **** #if (PREFETCH_ENABLE != 0)
 170:Drivers/STM32L4xx_HAL_Driver/Src/stm32l4xx_hal.c ****   __HAL_FLASH_PREFETCH_BUFFER_ENABLE();
 171:Drivers/STM32L4xx_HAL_Driver/Src/stm32l4xx_hal.c **** #endif /* PREFETCH_ENABLE */
 172:Drivers/STM32L4xx_HAL_Driver/Src/stm32l4xx_hal.c **** 
 173:Drivers/STM32L4xx_HAL_Driver/Src/stm32l4xx_hal.c ****   /* Set Interrupt Group Priority */
 174:Drivers/STM32L4xx_HAL_Driver/Src/stm32l4xx_hal.c ****   HAL_NVIC_SetPriorityGrouping(NVIC_PRIORITYGROUP_4);
 175:Drivers/STM32L4xx_HAL_Driver/Src/stm32l4xx_hal.c **** 
 176:Drivers/STM32L4xx_HAL_Driver/Src/stm32l4xx_hal.c ****   /* Use SysTick as time base source and configure 1ms tick (default clock after Reset is MSI) */
 177:Drivers/STM32L4xx_HAL_Driver/Src/stm32l4xx_hal.c ****   if (HAL_InitTick(TICK_INT_PRIORITY) != HAL_OK)
 178:Drivers/STM32L4xx_HAL_Driver/Src/stm32l4xx_hal.c ****   {
 179:Drivers/STM32L4xx_HAL_Driver/Src/stm32l4xx_hal.c ****     status = HAL_ERROR;
 180:Drivers/STM32L4xx_HAL_Driver/Src/stm32l4xx_hal.c ****   }
 181:Drivers/STM32L4xx_HAL_Driver/Src/stm32l4xx_hal.c ****   else
 182:Drivers/STM32L4xx_HAL_Driver/Src/stm32l4xx_hal.c ****   {
 183:Drivers/STM32L4xx_HAL_Driver/Src/stm32l4xx_hal.c ****     /* Init the low level hardware */
 184:Drivers/STM32L4xx_HAL_Driver/Src/stm32l4xx_hal.c ****     HAL_MspInit();
 185:Drivers/STM32L4xx_HAL_Driver/Src/stm32l4xx_hal.c ****   }
 186:Drivers/STM32L4xx_HAL_Driver/Src/stm32l4xx_hal.c **** 
 187:Drivers/STM32L4xx_HAL_Driver/Src/stm32l4xx_hal.c ****   /* Return function status */
 188:Drivers/STM32L4xx_HAL_Driver/Src/stm32l4xx_hal.c ****   return status;
 189:Drivers/STM32L4xx_HAL_Driver/Src/stm32l4xx_hal.c **** }
 190:Drivers/STM32L4xx_HAL_Driver/Src/stm32l4xx_hal.c **** 
 191:Drivers/STM32L4xx_HAL_Driver/Src/stm32l4xx_hal.c **** /**
 192:Drivers/STM32L4xx_HAL_Driver/Src/stm32l4xx_hal.c ****   * @brief De-initialize common part of the HAL and stop the source of time base.
 193:Drivers/STM32L4xx_HAL_Driver/Src/stm32l4xx_hal.c ****   * @note This function is optional.
 194:Drivers/STM32L4xx_HAL_Driver/Src/stm32l4xx_hal.c ****   * @retval HAL status
 195:Drivers/STM32L4xx_HAL_Driver/Src/stm32l4xx_hal.c ****   */
 196:Drivers/STM32L4xx_HAL_Driver/Src/stm32l4xx_hal.c **** HAL_StatusTypeDef HAL_DeInit(void)
 197:Drivers/STM32L4xx_HAL_Driver/Src/stm32l4xx_hal.c **** {
 198:Drivers/STM32L4xx_HAL_Driver/Src/stm32l4xx_hal.c ****   /* Reset of all peripherals */
 199:Drivers/STM32L4xx_HAL_Driver/Src/stm32l4xx_hal.c ****   __HAL_RCC_APB1_FORCE_RESET();
 200:Drivers/STM32L4xx_HAL_Driver/Src/stm32l4xx_hal.c ****   __HAL_RCC_APB1_RELEASE_RESET();
 201:Drivers/STM32L4xx_HAL_Driver/Src/stm32l4xx_hal.c **** 
ARM GAS  C:\Users\Jakob\AppData\Local\Temp\cclvtDWl.s 			page 5


 202:Drivers/STM32L4xx_HAL_Driver/Src/stm32l4xx_hal.c ****   __HAL_RCC_APB2_FORCE_RESET();
 203:Drivers/STM32L4xx_HAL_Driver/Src/stm32l4xx_hal.c ****   __HAL_RCC_APB2_RELEASE_RESET();
 204:Drivers/STM32L4xx_HAL_Driver/Src/stm32l4xx_hal.c **** 
 205:Drivers/STM32L4xx_HAL_Driver/Src/stm32l4xx_hal.c ****   __HAL_RCC_AHB1_FORCE_RESET();
 206:Drivers/STM32L4xx_HAL_Driver/Src/stm32l4xx_hal.c ****   __HAL_RCC_AHB1_RELEASE_RESET();
 207:Drivers/STM32L4xx_HAL_Driver/Src/stm32l4xx_hal.c **** 
 208:Drivers/STM32L4xx_HAL_Driver/Src/stm32l4xx_hal.c ****   __HAL_RCC_AHB2_FORCE_RESET();
 209:Drivers/STM32L4xx_HAL_Driver/Src/stm32l4xx_hal.c ****   __HAL_RCC_AHB2_RELEASE_RESET();
 210:Drivers/STM32L4xx_HAL_Driver/Src/stm32l4xx_hal.c **** 
 211:Drivers/STM32L4xx_HAL_Driver/Src/stm32l4xx_hal.c ****   __HAL_RCC_AHB3_FORCE_RESET();
 212:Drivers/STM32L4xx_HAL_Driver/Src/stm32l4xx_hal.c ****   __HAL_RCC_AHB3_RELEASE_RESET();
 213:Drivers/STM32L4xx_HAL_Driver/Src/stm32l4xx_hal.c **** 
 214:Drivers/STM32L4xx_HAL_Driver/Src/stm32l4xx_hal.c ****   /* De-Init the low level hardware */
 215:Drivers/STM32L4xx_HAL_Driver/Src/stm32l4xx_hal.c ****   HAL_MspDeInit();
 216:Drivers/STM32L4xx_HAL_Driver/Src/stm32l4xx_hal.c **** 
 217:Drivers/STM32L4xx_HAL_Driver/Src/stm32l4xx_hal.c ****   /* Return function status */
 218:Drivers/STM32L4xx_HAL_Driver/Src/stm32l4xx_hal.c ****   return HAL_OK;
 219:Drivers/STM32L4xx_HAL_Driver/Src/stm32l4xx_hal.c **** }
 220:Drivers/STM32L4xx_HAL_Driver/Src/stm32l4xx_hal.c **** 
 221:Drivers/STM32L4xx_HAL_Driver/Src/stm32l4xx_hal.c **** /**
 222:Drivers/STM32L4xx_HAL_Driver/Src/stm32l4xx_hal.c ****   * @brief  Initialize the MSP.
 223:Drivers/STM32L4xx_HAL_Driver/Src/stm32l4xx_hal.c ****   * @retval None
 224:Drivers/STM32L4xx_HAL_Driver/Src/stm32l4xx_hal.c ****   */
 225:Drivers/STM32L4xx_HAL_Driver/Src/stm32l4xx_hal.c **** __weak void HAL_MspInit(void)
 226:Drivers/STM32L4xx_HAL_Driver/Src/stm32l4xx_hal.c **** {
  29              		.loc 1 226 1 view -0
  30              		.cfi_startproc
  31              		@ args = 0, pretend = 0, frame = 0
  32              		@ frame_needed = 0, uses_anonymous_args = 0
  33              		@ link register save eliminated.
 227:Drivers/STM32L4xx_HAL_Driver/Src/stm32l4xx_hal.c ****   /* NOTE : This function should not be modified, when the callback is needed,
 228:Drivers/STM32L4xx_HAL_Driver/Src/stm32l4xx_hal.c ****             the HAL_MspInit could be implemented in the user file
 229:Drivers/STM32L4xx_HAL_Driver/Src/stm32l4xx_hal.c ****    */
 230:Drivers/STM32L4xx_HAL_Driver/Src/stm32l4xx_hal.c **** }
  34              		.loc 1 230 1 view .LVU1
  35 0000 7047     		bx	lr
  36              		.cfi_endproc
  37              	.LFE134:
  39              		.section	.text.HAL_MspDeInit,"ax",%progbits
  40              		.align	1
  41              		.weak	HAL_MspDeInit
  42              		.syntax unified
  43              		.thumb
  44              		.thumb_func
  46              	HAL_MspDeInit:
  47              	.LFB135:
 231:Drivers/STM32L4xx_HAL_Driver/Src/stm32l4xx_hal.c **** 
 232:Drivers/STM32L4xx_HAL_Driver/Src/stm32l4xx_hal.c **** /**
 233:Drivers/STM32L4xx_HAL_Driver/Src/stm32l4xx_hal.c ****   * @brief  DeInitialize the MSP.
 234:Drivers/STM32L4xx_HAL_Driver/Src/stm32l4xx_hal.c ****   * @retval None
 235:Drivers/STM32L4xx_HAL_Driver/Src/stm32l4xx_hal.c ****   */
 236:Drivers/STM32L4xx_HAL_Driver/Src/stm32l4xx_hal.c **** __weak void HAL_MspDeInit(void)
 237:Drivers/STM32L4xx_HAL_Driver/Src/stm32l4xx_hal.c **** {
  48              		.loc 1 237 1 view -0
  49              		.cfi_startproc
  50              		@ args = 0, pretend = 0, frame = 0
  51              		@ frame_needed = 0, uses_anonymous_args = 0
ARM GAS  C:\Users\Jakob\AppData\Local\Temp\cclvtDWl.s 			page 6


  52              		@ link register save eliminated.
 238:Drivers/STM32L4xx_HAL_Driver/Src/stm32l4xx_hal.c ****   /* NOTE : This function should not be modified, when the callback is needed,
 239:Drivers/STM32L4xx_HAL_Driver/Src/stm32l4xx_hal.c ****             the HAL_MspDeInit could be implemented in the user file
 240:Drivers/STM32L4xx_HAL_Driver/Src/stm32l4xx_hal.c ****    */
 241:Drivers/STM32L4xx_HAL_Driver/Src/stm32l4xx_hal.c **** }
  53              		.loc 1 241 1 view .LVU3
  54 0000 7047     		bx	lr
  55              		.cfi_endproc
  56              	.LFE135:
  58              		.section	.text.HAL_DeInit,"ax",%progbits
  59              		.align	1
  60              		.global	HAL_DeInit
  61              		.syntax unified
  62              		.thumb
  63              		.thumb_func
  65              	HAL_DeInit:
  66              	.LFB133:
 197:Drivers/STM32L4xx_HAL_Driver/Src/stm32l4xx_hal.c ****   /* Reset of all peripherals */
  67              		.loc 1 197 1 view -0
  68              		.cfi_startproc
  69              		@ args = 0, pretend = 0, frame = 0
  70              		@ frame_needed = 0, uses_anonymous_args = 0
  71 0000 10B5     		push	{r4, lr}
  72              	.LCFI0:
  73              		.cfi_def_cfa_offset 8
  74              		.cfi_offset 4, -8
  75              		.cfi_offset 14, -4
 199:Drivers/STM32L4xx_HAL_Driver/Src/stm32l4xx_hal.c ****   __HAL_RCC_APB1_RELEASE_RESET();
  76              		.loc 1 199 3 view .LVU5
 199:Drivers/STM32L4xx_HAL_Driver/Src/stm32l4xx_hal.c ****   __HAL_RCC_APB1_RELEASE_RESET();
  77              		.loc 1 199 3 view .LVU6
  78 0002 0A4B     		ldr	r3, .L5
  79 0004 4FF0FF32 		mov	r2, #-1
  80 0008 9A63     		str	r2, [r3, #56]
 199:Drivers/STM32L4xx_HAL_Driver/Src/stm32l4xx_hal.c ****   __HAL_RCC_APB1_RELEASE_RESET();
  81              		.loc 1 199 3 view .LVU7
  82 000a DA63     		str	r2, [r3, #60]
 199:Drivers/STM32L4xx_HAL_Driver/Src/stm32l4xx_hal.c ****   __HAL_RCC_APB1_RELEASE_RESET();
  83              		.loc 1 199 3 view .LVU8
 200:Drivers/STM32L4xx_HAL_Driver/Src/stm32l4xx_hal.c **** 
  84              		.loc 1 200 3 view .LVU9
 200:Drivers/STM32L4xx_HAL_Driver/Src/stm32l4xx_hal.c **** 
  85              		.loc 1 200 3 view .LVU10
  86 000c 0024     		movs	r4, #0
  87 000e 9C63     		str	r4, [r3, #56]
 200:Drivers/STM32L4xx_HAL_Driver/Src/stm32l4xx_hal.c **** 
  88              		.loc 1 200 3 view .LVU11
  89 0010 DC63     		str	r4, [r3, #60]
 200:Drivers/STM32L4xx_HAL_Driver/Src/stm32l4xx_hal.c **** 
  90              		.loc 1 200 3 view .LVU12
 202:Drivers/STM32L4xx_HAL_Driver/Src/stm32l4xx_hal.c ****   __HAL_RCC_APB2_RELEASE_RESET();
  91              		.loc 1 202 3 view .LVU13
  92 0012 1A64     		str	r2, [r3, #64]
 203:Drivers/STM32L4xx_HAL_Driver/Src/stm32l4xx_hal.c **** 
  93              		.loc 1 203 3 view .LVU14
  94 0014 1C64     		str	r4, [r3, #64]
 205:Drivers/STM32L4xx_HAL_Driver/Src/stm32l4xx_hal.c ****   __HAL_RCC_AHB1_RELEASE_RESET();
ARM GAS  C:\Users\Jakob\AppData\Local\Temp\cclvtDWl.s 			page 7


  95              		.loc 1 205 3 view .LVU15
  96 0016 9A62     		str	r2, [r3, #40]
 206:Drivers/STM32L4xx_HAL_Driver/Src/stm32l4xx_hal.c **** 
  97              		.loc 1 206 3 view .LVU16
  98 0018 9C62     		str	r4, [r3, #40]
 208:Drivers/STM32L4xx_HAL_Driver/Src/stm32l4xx_hal.c ****   __HAL_RCC_AHB2_RELEASE_RESET();
  99              		.loc 1 208 3 view .LVU17
 100 001a DA62     		str	r2, [r3, #44]
 209:Drivers/STM32L4xx_HAL_Driver/Src/stm32l4xx_hal.c **** 
 101              		.loc 1 209 3 view .LVU18
 102 001c DC62     		str	r4, [r3, #44]
 211:Drivers/STM32L4xx_HAL_Driver/Src/stm32l4xx_hal.c ****   __HAL_RCC_AHB3_RELEASE_RESET();
 103              		.loc 1 211 3 view .LVU19
 104 001e 1A63     		str	r2, [r3, #48]
 212:Drivers/STM32L4xx_HAL_Driver/Src/stm32l4xx_hal.c **** 
 105              		.loc 1 212 3 view .LVU20
 106 0020 1C63     		str	r4, [r3, #48]
 215:Drivers/STM32L4xx_HAL_Driver/Src/stm32l4xx_hal.c **** 
 107              		.loc 1 215 3 view .LVU21
 108 0022 FFF7FEFF 		bl	HAL_MspDeInit
 109              	.LVL0:
 218:Drivers/STM32L4xx_HAL_Driver/Src/stm32l4xx_hal.c **** }
 110              		.loc 1 218 3 view .LVU22
 219:Drivers/STM32L4xx_HAL_Driver/Src/stm32l4xx_hal.c **** 
 111              		.loc 1 219 1 is_stmt 0 view .LVU23
 112 0026 2046     		mov	r0, r4
 113 0028 10BD     		pop	{r4, pc}
 114              	.L6:
 115 002a 00BF     		.align	2
 116              	.L5:
 117 002c 00100240 		.word	1073876992
 118              		.cfi_endproc
 119              	.LFE133:
 121              		.section	.text.HAL_InitTick,"ax",%progbits
 122              		.align	1
 123              		.weak	HAL_InitTick
 124              		.syntax unified
 125              		.thumb
 126              		.thumb_func
 128              	HAL_InitTick:
 129              	.LVL1:
 130              	.LFB136:
 242:Drivers/STM32L4xx_HAL_Driver/Src/stm32l4xx_hal.c **** 
 243:Drivers/STM32L4xx_HAL_Driver/Src/stm32l4xx_hal.c **** /**
 244:Drivers/STM32L4xx_HAL_Driver/Src/stm32l4xx_hal.c ****   * @brief This function configures the source of the time base:
 245:Drivers/STM32L4xx_HAL_Driver/Src/stm32l4xx_hal.c ****   *        The time source is configured to have 1ms time base with a dedicated
 246:Drivers/STM32L4xx_HAL_Driver/Src/stm32l4xx_hal.c ****   *        Tick interrupt priority.
 247:Drivers/STM32L4xx_HAL_Driver/Src/stm32l4xx_hal.c ****   * @note This function is called  automatically at the beginning of program after
 248:Drivers/STM32L4xx_HAL_Driver/Src/stm32l4xx_hal.c ****   *       reset by HAL_Init() or at any time when clock is reconfigured  by HAL_RCC_ClockConfig().
 249:Drivers/STM32L4xx_HAL_Driver/Src/stm32l4xx_hal.c ****   * @note In the default implementation, SysTick timer is the source of time base.
 250:Drivers/STM32L4xx_HAL_Driver/Src/stm32l4xx_hal.c ****   *       It is used to generate interrupts at regular time intervals.
 251:Drivers/STM32L4xx_HAL_Driver/Src/stm32l4xx_hal.c ****   *       Care must be taken if HAL_Delay() is called from a peripheral ISR process,
 252:Drivers/STM32L4xx_HAL_Driver/Src/stm32l4xx_hal.c ****   *       The SysTick interrupt must have higher priority (numerically lower)
 253:Drivers/STM32L4xx_HAL_Driver/Src/stm32l4xx_hal.c ****   *       than the peripheral interrupt. Otherwise the caller ISR process will be blocked.
 254:Drivers/STM32L4xx_HAL_Driver/Src/stm32l4xx_hal.c ****   *       The function is declared as __weak  to be overwritten  in case of other
 255:Drivers/STM32L4xx_HAL_Driver/Src/stm32l4xx_hal.c ****   *       implementation  in user file.
 256:Drivers/STM32L4xx_HAL_Driver/Src/stm32l4xx_hal.c ****   * @param TickPriority  Tick interrupt priority.
ARM GAS  C:\Users\Jakob\AppData\Local\Temp\cclvtDWl.s 			page 8


 257:Drivers/STM32L4xx_HAL_Driver/Src/stm32l4xx_hal.c ****   * @retval HAL status
 258:Drivers/STM32L4xx_HAL_Driver/Src/stm32l4xx_hal.c ****   */
 259:Drivers/STM32L4xx_HAL_Driver/Src/stm32l4xx_hal.c **** __weak HAL_StatusTypeDef HAL_InitTick(uint32_t TickPriority)
 260:Drivers/STM32L4xx_HAL_Driver/Src/stm32l4xx_hal.c **** {
 131              		.loc 1 260 1 is_stmt 1 view -0
 132              		.cfi_startproc
 133              		@ args = 0, pretend = 0, frame = 0
 134              		@ frame_needed = 0, uses_anonymous_args = 0
 261:Drivers/STM32L4xx_HAL_Driver/Src/stm32l4xx_hal.c ****   HAL_StatusTypeDef  status = HAL_OK;
 135              		.loc 1 261 3 view .LVU25
 262:Drivers/STM32L4xx_HAL_Driver/Src/stm32l4xx_hal.c **** 
 263:Drivers/STM32L4xx_HAL_Driver/Src/stm32l4xx_hal.c ****   /* Check uwTickFreq for MisraC 2012 (even if uwTickFreq is a enum type that doesn't take the valu
 264:Drivers/STM32L4xx_HAL_Driver/Src/stm32l4xx_hal.c ****   if ((uint32_t)uwTickFreq != 0U)
 136              		.loc 1 264 3 view .LVU26
 137              		.loc 1 264 28 is_stmt 0 view .LVU27
 138 0000 104B     		ldr	r3, .L18
 139 0002 1B78     		ldrb	r3, [r3]	@ zero_extendqisi2
 140              		.loc 1 264 6 view .LVU28
 141 0004 0BB9     		cbnz	r3, .L16
 265:Drivers/STM32L4xx_HAL_Driver/Src/stm32l4xx_hal.c ****   {
 266:Drivers/STM32L4xx_HAL_Driver/Src/stm32l4xx_hal.c ****     /*Configure the SysTick to have interrupt in 1ms time basis*/
 267:Drivers/STM32L4xx_HAL_Driver/Src/stm32l4xx_hal.c ****     if (HAL_SYSTICK_Config(SystemCoreClock / (1000U / (uint32_t)uwTickFreq)) == 0U)
 268:Drivers/STM32L4xx_HAL_Driver/Src/stm32l4xx_hal.c ****     {
 269:Drivers/STM32L4xx_HAL_Driver/Src/stm32l4xx_hal.c ****       /* Configure the SysTick IRQ priority */
 270:Drivers/STM32L4xx_HAL_Driver/Src/stm32l4xx_hal.c ****       if (TickPriority < (1UL << __NVIC_PRIO_BITS))
 271:Drivers/STM32L4xx_HAL_Driver/Src/stm32l4xx_hal.c ****       {
 272:Drivers/STM32L4xx_HAL_Driver/Src/stm32l4xx_hal.c ****         HAL_NVIC_SetPriority(SysTick_IRQn, TickPriority, 0U);
 273:Drivers/STM32L4xx_HAL_Driver/Src/stm32l4xx_hal.c ****         uwTickPrio = TickPriority;
 274:Drivers/STM32L4xx_HAL_Driver/Src/stm32l4xx_hal.c ****       }
 275:Drivers/STM32L4xx_HAL_Driver/Src/stm32l4xx_hal.c ****       else
 276:Drivers/STM32L4xx_HAL_Driver/Src/stm32l4xx_hal.c ****       {
 277:Drivers/STM32L4xx_HAL_Driver/Src/stm32l4xx_hal.c ****         status = HAL_ERROR;
 278:Drivers/STM32L4xx_HAL_Driver/Src/stm32l4xx_hal.c ****       }
 279:Drivers/STM32L4xx_HAL_Driver/Src/stm32l4xx_hal.c ****     }
 280:Drivers/STM32L4xx_HAL_Driver/Src/stm32l4xx_hal.c ****     else
 281:Drivers/STM32L4xx_HAL_Driver/Src/stm32l4xx_hal.c ****     {
 282:Drivers/STM32L4xx_HAL_Driver/Src/stm32l4xx_hal.c ****       status = HAL_ERROR;
 283:Drivers/STM32L4xx_HAL_Driver/Src/stm32l4xx_hal.c ****     }
 284:Drivers/STM32L4xx_HAL_Driver/Src/stm32l4xx_hal.c ****   }
 285:Drivers/STM32L4xx_HAL_Driver/Src/stm32l4xx_hal.c ****   else
 286:Drivers/STM32L4xx_HAL_Driver/Src/stm32l4xx_hal.c ****   {
 287:Drivers/STM32L4xx_HAL_Driver/Src/stm32l4xx_hal.c ****     status = HAL_ERROR;
 142              		.loc 1 287 12 view .LVU29
 143 0006 0120     		movs	r0, #1
 144              	.LVL2:
 288:Drivers/STM32L4xx_HAL_Driver/Src/stm32l4xx_hal.c ****   }
 289:Drivers/STM32L4xx_HAL_Driver/Src/stm32l4xx_hal.c **** 
 290:Drivers/STM32L4xx_HAL_Driver/Src/stm32l4xx_hal.c ****   /* Return function status */
 291:Drivers/STM32L4xx_HAL_Driver/Src/stm32l4xx_hal.c ****   return status;
 145              		.loc 1 291 3 is_stmt 1 view .LVU30
 292:Drivers/STM32L4xx_HAL_Driver/Src/stm32l4xx_hal.c **** }
 146              		.loc 1 292 1 is_stmt 0 view .LVU31
 147 0008 7047     		bx	lr
 148              	.LVL3:
 149              	.L16:
 260:Drivers/STM32L4xx_HAL_Driver/Src/stm32l4xx_hal.c ****   HAL_StatusTypeDef  status = HAL_OK;
 150              		.loc 1 260 1 view .LVU32
ARM GAS  C:\Users\Jakob\AppData\Local\Temp\cclvtDWl.s 			page 9


 151 000a 10B5     		push	{r4, lr}
 152              	.LCFI1:
 153              		.cfi_def_cfa_offset 8
 154              		.cfi_offset 4, -8
 155              		.cfi_offset 14, -4
 156 000c 0446     		mov	r4, r0
 267:Drivers/STM32L4xx_HAL_Driver/Src/stm32l4xx_hal.c ****     {
 157              		.loc 1 267 5 is_stmt 1 view .LVU33
 267:Drivers/STM32L4xx_HAL_Driver/Src/stm32l4xx_hal.c ****     {
 158              		.loc 1 267 53 is_stmt 0 view .LVU34
 159 000e 4FF47A70 		mov	r0, #1000
 160              	.LVL4:
 267:Drivers/STM32L4xx_HAL_Driver/Src/stm32l4xx_hal.c ****     {
 161              		.loc 1 267 53 view .LVU35
 162 0012 B0FBF3F3 		udiv	r3, r0, r3
 267:Drivers/STM32L4xx_HAL_Driver/Src/stm32l4xx_hal.c ****     {
 163              		.loc 1 267 9 view .LVU36
 164 0016 0C4A     		ldr	r2, .L18+4
 165 0018 1068     		ldr	r0, [r2]
 166 001a B0FBF3F0 		udiv	r0, r0, r3
 167 001e FFF7FEFF 		bl	HAL_SYSTICK_Config
 168              	.LVL5:
 267:Drivers/STM32L4xx_HAL_Driver/Src/stm32l4xx_hal.c ****     {
 169              		.loc 1 267 8 discriminator 1 view .LVU37
 170 0022 68B9     		cbnz	r0, .L10
 270:Drivers/STM32L4xx_HAL_Driver/Src/stm32l4xx_hal.c ****       {
 171              		.loc 1 270 7 is_stmt 1 view .LVU38
 270:Drivers/STM32L4xx_HAL_Driver/Src/stm32l4xx_hal.c ****       {
 172              		.loc 1 270 10 is_stmt 0 view .LVU39
 173 0024 0F2C     		cmp	r4, #15
 174 0026 01D9     		bls	.L17
 277:Drivers/STM32L4xx_HAL_Driver/Src/stm32l4xx_hal.c ****       }
 175              		.loc 1 277 16 view .LVU40
 176 0028 0120     		movs	r0, #1
 177 002a 0AE0     		b	.L8
 178              	.L17:
 272:Drivers/STM32L4xx_HAL_Driver/Src/stm32l4xx_hal.c ****         uwTickPrio = TickPriority;
 179              		.loc 1 272 9 is_stmt 1 view .LVU41
 180 002c 0022     		movs	r2, #0
 181 002e 2146     		mov	r1, r4
 182 0030 4FF0FF30 		mov	r0, #-1
 183 0034 FFF7FEFF 		bl	HAL_NVIC_SetPriority
 184              	.LVL6:
 273:Drivers/STM32L4xx_HAL_Driver/Src/stm32l4xx_hal.c ****       }
 185              		.loc 1 273 9 view .LVU42
 273:Drivers/STM32L4xx_HAL_Driver/Src/stm32l4xx_hal.c ****       }
 186              		.loc 1 273 20 is_stmt 0 view .LVU43
 187 0038 044B     		ldr	r3, .L18+8
 188 003a 1C60     		str	r4, [r3]
 261:Drivers/STM32L4xx_HAL_Driver/Src/stm32l4xx_hal.c **** 
 189              		.loc 1 261 22 view .LVU44
 190 003c 0020     		movs	r0, #0
 191 003e 00E0     		b	.L8
 192              	.L10:
 282:Drivers/STM32L4xx_HAL_Driver/Src/stm32l4xx_hal.c ****     }
 193              		.loc 1 282 14 view .LVU45
 194 0040 0120     		movs	r0, #1
ARM GAS  C:\Users\Jakob\AppData\Local\Temp\cclvtDWl.s 			page 10


 195              	.L8:
 196              	.LVL7:
 291:Drivers/STM32L4xx_HAL_Driver/Src/stm32l4xx_hal.c **** }
 197              		.loc 1 291 3 is_stmt 1 view .LVU46
 198              		.loc 1 292 1 is_stmt 0 view .LVU47
 199 0042 10BD     		pop	{r4, pc}
 200              	.LVL8:
 201              	.L19:
 202              		.loc 1 292 1 view .LVU48
 203              		.align	2
 204              	.L18:
 205 0044 00000000 		.word	uwTickFreq
 206 0048 00000000 		.word	SystemCoreClock
 207 004c 00000000 		.word	uwTickPrio
 208              		.cfi_endproc
 209              	.LFE136:
 211              		.section	.text.HAL_Init,"ax",%progbits
 212              		.align	1
 213              		.global	HAL_Init
 214              		.syntax unified
 215              		.thumb
 216              		.thumb_func
 218              	HAL_Init:
 219              	.LFB132:
 153:Drivers/STM32L4xx_HAL_Driver/Src/stm32l4xx_hal.c ****   HAL_StatusTypeDef  status = HAL_OK;
 220              		.loc 1 153 1 is_stmt 1 view -0
 221              		.cfi_startproc
 222              		@ args = 0, pretend = 0, frame = 0
 223              		@ frame_needed = 0, uses_anonymous_args = 0
 224 0000 10B5     		push	{r4, lr}
 225              	.LCFI2:
 226              		.cfi_def_cfa_offset 8
 227              		.cfi_offset 4, -8
 228              		.cfi_offset 14, -4
 154:Drivers/STM32L4xx_HAL_Driver/Src/stm32l4xx_hal.c **** 
 229              		.loc 1 154 3 view .LVU50
 230              	.LVL9:
 174:Drivers/STM32L4xx_HAL_Driver/Src/stm32l4xx_hal.c **** 
 231              		.loc 1 174 3 view .LVU51
 232 0002 0320     		movs	r0, #3
 233 0004 FFF7FEFF 		bl	HAL_NVIC_SetPriorityGrouping
 234              	.LVL10:
 177:Drivers/STM32L4xx_HAL_Driver/Src/stm32l4xx_hal.c ****   {
 235              		.loc 1 177 3 view .LVU52
 177:Drivers/STM32L4xx_HAL_Driver/Src/stm32l4xx_hal.c ****   {
 236              		.loc 1 177 7 is_stmt 0 view .LVU53
 237 0008 0F20     		movs	r0, #15
 238 000a FFF7FEFF 		bl	HAL_InitTick
 239              	.LVL11:
 177:Drivers/STM32L4xx_HAL_Driver/Src/stm32l4xx_hal.c ****   {
 240              		.loc 1 177 6 discriminator 1 view .LVU54
 241 000e 10B1     		cbz	r0, .L24
 179:Drivers/STM32L4xx_HAL_Driver/Src/stm32l4xx_hal.c ****   }
 242              		.loc 1 179 12 view .LVU55
 243 0010 0124     		movs	r4, #1
 244              	.L21:
 245              	.LVL12:
ARM GAS  C:\Users\Jakob\AppData\Local\Temp\cclvtDWl.s 			page 11


 188:Drivers/STM32L4xx_HAL_Driver/Src/stm32l4xx_hal.c **** }
 246              		.loc 1 188 3 is_stmt 1 view .LVU56
 189:Drivers/STM32L4xx_HAL_Driver/Src/stm32l4xx_hal.c **** 
 247              		.loc 1 189 1 is_stmt 0 view .LVU57
 248 0012 2046     		mov	r0, r4
 249 0014 10BD     		pop	{r4, pc}
 250              	.LVL13:
 251              	.L24:
 189:Drivers/STM32L4xx_HAL_Driver/Src/stm32l4xx_hal.c **** 
 252              		.loc 1 189 1 view .LVU58
 253 0016 0446     		mov	r4, r0
 184:Drivers/STM32L4xx_HAL_Driver/Src/stm32l4xx_hal.c ****   }
 254              		.loc 1 184 5 is_stmt 1 view .LVU59
 255 0018 FFF7FEFF 		bl	HAL_MspInit
 256              	.LVL14:
 257 001c F9E7     		b	.L21
 258              		.cfi_endproc
 259              	.LFE132:
 261              		.section	.text.HAL_IncTick,"ax",%progbits
 262              		.align	1
 263              		.weak	HAL_IncTick
 264              		.syntax unified
 265              		.thumb
 266              		.thumb_func
 268              	HAL_IncTick:
 269              	.LFB137:
 293:Drivers/STM32L4xx_HAL_Driver/Src/stm32l4xx_hal.c **** 
 294:Drivers/STM32L4xx_HAL_Driver/Src/stm32l4xx_hal.c **** /**
 295:Drivers/STM32L4xx_HAL_Driver/Src/stm32l4xx_hal.c ****   * @}
 296:Drivers/STM32L4xx_HAL_Driver/Src/stm32l4xx_hal.c ****   */
 297:Drivers/STM32L4xx_HAL_Driver/Src/stm32l4xx_hal.c **** 
 298:Drivers/STM32L4xx_HAL_Driver/Src/stm32l4xx_hal.c **** /** @defgroup HAL_Exported_Functions_Group2 HAL Control functions
 299:Drivers/STM32L4xx_HAL_Driver/Src/stm32l4xx_hal.c ****  *  @brief    HAL Control functions
 300:Drivers/STM32L4xx_HAL_Driver/Src/stm32l4xx_hal.c ****  *
 301:Drivers/STM32L4xx_HAL_Driver/Src/stm32l4xx_hal.c **** @verbatim
 302:Drivers/STM32L4xx_HAL_Driver/Src/stm32l4xx_hal.c ****  ===============================================================================
 303:Drivers/STM32L4xx_HAL_Driver/Src/stm32l4xx_hal.c ****                       ##### HAL Control functions #####
 304:Drivers/STM32L4xx_HAL_Driver/Src/stm32l4xx_hal.c ****  ===============================================================================
 305:Drivers/STM32L4xx_HAL_Driver/Src/stm32l4xx_hal.c ****     [..]  This section provides functions allowing to:
 306:Drivers/STM32L4xx_HAL_Driver/Src/stm32l4xx_hal.c ****       (+) Provide a tick value in millisecond
 307:Drivers/STM32L4xx_HAL_Driver/Src/stm32l4xx_hal.c ****       (+) Provide a blocking delay in millisecond
 308:Drivers/STM32L4xx_HAL_Driver/Src/stm32l4xx_hal.c ****       (+) Suspend the time base source interrupt
 309:Drivers/STM32L4xx_HAL_Driver/Src/stm32l4xx_hal.c ****       (+) Resume the time base source interrupt
 310:Drivers/STM32L4xx_HAL_Driver/Src/stm32l4xx_hal.c ****       (+) Get the HAL API driver version
 311:Drivers/STM32L4xx_HAL_Driver/Src/stm32l4xx_hal.c ****       (+) Get the device identifier
 312:Drivers/STM32L4xx_HAL_Driver/Src/stm32l4xx_hal.c ****       (+) Get the device revision identifier
 313:Drivers/STM32L4xx_HAL_Driver/Src/stm32l4xx_hal.c **** 
 314:Drivers/STM32L4xx_HAL_Driver/Src/stm32l4xx_hal.c **** @endverbatim
 315:Drivers/STM32L4xx_HAL_Driver/Src/stm32l4xx_hal.c ****   * @{
 316:Drivers/STM32L4xx_HAL_Driver/Src/stm32l4xx_hal.c ****   */
 317:Drivers/STM32L4xx_HAL_Driver/Src/stm32l4xx_hal.c **** 
 318:Drivers/STM32L4xx_HAL_Driver/Src/stm32l4xx_hal.c **** /**
 319:Drivers/STM32L4xx_HAL_Driver/Src/stm32l4xx_hal.c ****   * @brief This function is called to increment a global variable "uwTick"
 320:Drivers/STM32L4xx_HAL_Driver/Src/stm32l4xx_hal.c ****   *        used as application time base.
 321:Drivers/STM32L4xx_HAL_Driver/Src/stm32l4xx_hal.c ****   * @note In the default implementation, this variable is incremented each 1ms
 322:Drivers/STM32L4xx_HAL_Driver/Src/stm32l4xx_hal.c ****   *       in SysTick ISR.
 323:Drivers/STM32L4xx_HAL_Driver/Src/stm32l4xx_hal.c ****  * @note This function is declared as __weak to be overwritten in case of other
ARM GAS  C:\Users\Jakob\AppData\Local\Temp\cclvtDWl.s 			page 12


 324:Drivers/STM32L4xx_HAL_Driver/Src/stm32l4xx_hal.c ****   *      implementations in user file.
 325:Drivers/STM32L4xx_HAL_Driver/Src/stm32l4xx_hal.c ****   * @retval None
 326:Drivers/STM32L4xx_HAL_Driver/Src/stm32l4xx_hal.c ****   */
 327:Drivers/STM32L4xx_HAL_Driver/Src/stm32l4xx_hal.c **** __weak void HAL_IncTick(void)
 328:Drivers/STM32L4xx_HAL_Driver/Src/stm32l4xx_hal.c **** {
 270              		.loc 1 328 1 view -0
 271              		.cfi_startproc
 272              		@ args = 0, pretend = 0, frame = 0
 273              		@ frame_needed = 0, uses_anonymous_args = 0
 274              		@ link register save eliminated.
 329:Drivers/STM32L4xx_HAL_Driver/Src/stm32l4xx_hal.c ****   uwTick += (uint32_t)uwTickFreq;
 275              		.loc 1 329 3 view .LVU61
 276              		.loc 1 329 13 is_stmt 0 view .LVU62
 277 0000 034B     		ldr	r3, .L26
 278 0002 1B78     		ldrb	r3, [r3]	@ zero_extendqisi2
 279              		.loc 1 329 10 view .LVU63
 280 0004 034A     		ldr	r2, .L26+4
 281 0006 1168     		ldr	r1, [r2]
 282 0008 0B44     		add	r3, r3, r1
 283 000a 1360     		str	r3, [r2]
 330:Drivers/STM32L4xx_HAL_Driver/Src/stm32l4xx_hal.c **** }
 284              		.loc 1 330 1 view .LVU64
 285 000c 7047     		bx	lr
 286              	.L27:
 287 000e 00BF     		.align	2
 288              	.L26:
 289 0010 00000000 		.word	uwTickFreq
 290 0014 00000000 		.word	uwTick
 291              		.cfi_endproc
 292              	.LFE137:
 294              		.section	.text.HAL_GetTick,"ax",%progbits
 295              		.align	1
 296              		.weak	HAL_GetTick
 297              		.syntax unified
 298              		.thumb
 299              		.thumb_func
 301              	HAL_GetTick:
 302              	.LFB138:
 331:Drivers/STM32L4xx_HAL_Driver/Src/stm32l4xx_hal.c **** 
 332:Drivers/STM32L4xx_HAL_Driver/Src/stm32l4xx_hal.c **** /**
 333:Drivers/STM32L4xx_HAL_Driver/Src/stm32l4xx_hal.c ****   * @brief Provide a tick value in millisecond.
 334:Drivers/STM32L4xx_HAL_Driver/Src/stm32l4xx_hal.c ****   * @note This function is declared as __weak to be overwritten in case of other
 335:Drivers/STM32L4xx_HAL_Driver/Src/stm32l4xx_hal.c ****   *       implementations in user file.
 336:Drivers/STM32L4xx_HAL_Driver/Src/stm32l4xx_hal.c ****   * @retval tick value
 337:Drivers/STM32L4xx_HAL_Driver/Src/stm32l4xx_hal.c ****   */
 338:Drivers/STM32L4xx_HAL_Driver/Src/stm32l4xx_hal.c **** __weak uint32_t HAL_GetTick(void)
 339:Drivers/STM32L4xx_HAL_Driver/Src/stm32l4xx_hal.c **** {
 303              		.loc 1 339 1 is_stmt 1 view -0
 304              		.cfi_startproc
 305              		@ args = 0, pretend = 0, frame = 0
 306              		@ frame_needed = 0, uses_anonymous_args = 0
 307              		@ link register save eliminated.
 340:Drivers/STM32L4xx_HAL_Driver/Src/stm32l4xx_hal.c ****   return uwTick;
 308              		.loc 1 340 3 view .LVU66
 309              		.loc 1 340 10 is_stmt 0 view .LVU67
 310 0000 014B     		ldr	r3, .L29
 311 0002 1868     		ldr	r0, [r3]
ARM GAS  C:\Users\Jakob\AppData\Local\Temp\cclvtDWl.s 			page 13


 341:Drivers/STM32L4xx_HAL_Driver/Src/stm32l4xx_hal.c **** }
 312              		.loc 1 341 1 view .LVU68
 313 0004 7047     		bx	lr
 314              	.L30:
 315 0006 00BF     		.align	2
 316              	.L29:
 317 0008 00000000 		.word	uwTick
 318              		.cfi_endproc
 319              	.LFE138:
 321              		.section	.text.HAL_GetTickPrio,"ax",%progbits
 322              		.align	1
 323              		.global	HAL_GetTickPrio
 324              		.syntax unified
 325              		.thumb
 326              		.thumb_func
 328              	HAL_GetTickPrio:
 329              	.LFB139:
 342:Drivers/STM32L4xx_HAL_Driver/Src/stm32l4xx_hal.c **** 
 343:Drivers/STM32L4xx_HAL_Driver/Src/stm32l4xx_hal.c **** /**
 344:Drivers/STM32L4xx_HAL_Driver/Src/stm32l4xx_hal.c ****   * @brief This function returns a tick priority.
 345:Drivers/STM32L4xx_HAL_Driver/Src/stm32l4xx_hal.c ****   * @retval tick priority
 346:Drivers/STM32L4xx_HAL_Driver/Src/stm32l4xx_hal.c ****   */
 347:Drivers/STM32L4xx_HAL_Driver/Src/stm32l4xx_hal.c **** uint32_t HAL_GetTickPrio(void)
 348:Drivers/STM32L4xx_HAL_Driver/Src/stm32l4xx_hal.c **** {
 330              		.loc 1 348 1 is_stmt 1 view -0
 331              		.cfi_startproc
 332              		@ args = 0, pretend = 0, frame = 0
 333              		@ frame_needed = 0, uses_anonymous_args = 0
 334              		@ link register save eliminated.
 349:Drivers/STM32L4xx_HAL_Driver/Src/stm32l4xx_hal.c ****   return uwTickPrio;
 335              		.loc 1 349 3 view .LVU70
 350:Drivers/STM32L4xx_HAL_Driver/Src/stm32l4xx_hal.c **** }
 336              		.loc 1 350 1 is_stmt 0 view .LVU71
 337 0000 014B     		ldr	r3, .L32
 338 0002 1868     		ldr	r0, [r3]
 339 0004 7047     		bx	lr
 340              	.L33:
 341 0006 00BF     		.align	2
 342              	.L32:
 343 0008 00000000 		.word	uwTickPrio
 344              		.cfi_endproc
 345              	.LFE139:
 347              		.section	.text.HAL_SetTickFreq,"ax",%progbits
 348              		.align	1
 349              		.global	HAL_SetTickFreq
 350              		.syntax unified
 351              		.thumb
 352              		.thumb_func
 354              	HAL_SetTickFreq:
 355              	.LVL15:
 356              	.LFB140:
 351:Drivers/STM32L4xx_HAL_Driver/Src/stm32l4xx_hal.c **** 
 352:Drivers/STM32L4xx_HAL_Driver/Src/stm32l4xx_hal.c **** /**
 353:Drivers/STM32L4xx_HAL_Driver/Src/stm32l4xx_hal.c ****   * @brief Set new tick Freq.
 354:Drivers/STM32L4xx_HAL_Driver/Src/stm32l4xx_hal.c ****   * @param Freq tick frequency
 355:Drivers/STM32L4xx_HAL_Driver/Src/stm32l4xx_hal.c ****   * @retval HAL status
 356:Drivers/STM32L4xx_HAL_Driver/Src/stm32l4xx_hal.c ****   */
ARM GAS  C:\Users\Jakob\AppData\Local\Temp\cclvtDWl.s 			page 14


 357:Drivers/STM32L4xx_HAL_Driver/Src/stm32l4xx_hal.c **** HAL_StatusTypeDef HAL_SetTickFreq(HAL_TickFreqTypeDef Freq)
 358:Drivers/STM32L4xx_HAL_Driver/Src/stm32l4xx_hal.c **** {
 357              		.loc 1 358 1 is_stmt 1 view -0
 358              		.cfi_startproc
 359              		@ args = 0, pretend = 0, frame = 0
 360              		@ frame_needed = 0, uses_anonymous_args = 0
 361              		.loc 1 358 1 is_stmt 0 view .LVU73
 362 0000 10B5     		push	{r4, lr}
 363              	.LCFI3:
 364              		.cfi_def_cfa_offset 8
 365              		.cfi_offset 4, -8
 366              		.cfi_offset 14, -4
 359:Drivers/STM32L4xx_HAL_Driver/Src/stm32l4xx_hal.c ****   HAL_StatusTypeDef status  = HAL_OK;
 367              		.loc 1 359 3 is_stmt 1 view .LVU74
 368              	.LVL16:
 360:Drivers/STM32L4xx_HAL_Driver/Src/stm32l4xx_hal.c ****   HAL_TickFreqTypeDef prevTickFreq;
 369              		.loc 1 360 3 view .LVU75
 361:Drivers/STM32L4xx_HAL_Driver/Src/stm32l4xx_hal.c **** 
 362:Drivers/STM32L4xx_HAL_Driver/Src/stm32l4xx_hal.c ****   if (uwTickFreq != Freq)
 370              		.loc 1 362 3 view .LVU76
 371              		.loc 1 362 18 is_stmt 0 view .LVU77
 372 0002 084B     		ldr	r3, .L39
 373 0004 1C78     		ldrb	r4, [r3]	@ zero_extendqisi2
 374              		.loc 1 362 6 view .LVU78
 375 0006 8442     		cmp	r4, r0
 376 0008 01D1     		bne	.L38
 359:Drivers/STM32L4xx_HAL_Driver/Src/stm32l4xx_hal.c ****   HAL_TickFreqTypeDef prevTickFreq;
 377              		.loc 1 359 21 view .LVU79
 378 000a 0020     		movs	r0, #0
 379              	.LVL17:
 380              	.L35:
 363:Drivers/STM32L4xx_HAL_Driver/Src/stm32l4xx_hal.c ****   {
 364:Drivers/STM32L4xx_HAL_Driver/Src/stm32l4xx_hal.c ****     /* Back up uwTickFreq frequency */
 365:Drivers/STM32L4xx_HAL_Driver/Src/stm32l4xx_hal.c ****     prevTickFreq = uwTickFreq;
 366:Drivers/STM32L4xx_HAL_Driver/Src/stm32l4xx_hal.c **** 
 367:Drivers/STM32L4xx_HAL_Driver/Src/stm32l4xx_hal.c ****     /* Update uwTickFreq global variable used by HAL_InitTick() */
 368:Drivers/STM32L4xx_HAL_Driver/Src/stm32l4xx_hal.c ****     uwTickFreq = Freq;
 369:Drivers/STM32L4xx_HAL_Driver/Src/stm32l4xx_hal.c **** 
 370:Drivers/STM32L4xx_HAL_Driver/Src/stm32l4xx_hal.c ****     /* Apply the new tick Freq  */
 371:Drivers/STM32L4xx_HAL_Driver/Src/stm32l4xx_hal.c ****     status = HAL_InitTick(uwTickPrio);
 372:Drivers/STM32L4xx_HAL_Driver/Src/stm32l4xx_hal.c ****     if (status != HAL_OK)
 373:Drivers/STM32L4xx_HAL_Driver/Src/stm32l4xx_hal.c ****     {
 374:Drivers/STM32L4xx_HAL_Driver/Src/stm32l4xx_hal.c ****       /* Restore previous tick frequency */
 375:Drivers/STM32L4xx_HAL_Driver/Src/stm32l4xx_hal.c ****       uwTickFreq = prevTickFreq;
 376:Drivers/STM32L4xx_HAL_Driver/Src/stm32l4xx_hal.c ****     }
 377:Drivers/STM32L4xx_HAL_Driver/Src/stm32l4xx_hal.c ****   }
 378:Drivers/STM32L4xx_HAL_Driver/Src/stm32l4xx_hal.c **** 
 379:Drivers/STM32L4xx_HAL_Driver/Src/stm32l4xx_hal.c ****   return status;
 381              		.loc 1 379 3 is_stmt 1 view .LVU80
 380:Drivers/STM32L4xx_HAL_Driver/Src/stm32l4xx_hal.c **** }
 382              		.loc 1 380 1 is_stmt 0 view .LVU81
 383 000c 10BD     		pop	{r4, pc}
 384              	.LVL18:
 385              	.L38:
 365:Drivers/STM32L4xx_HAL_Driver/Src/stm32l4xx_hal.c **** 
 386              		.loc 1 365 5 is_stmt 1 view .LVU82
 368:Drivers/STM32L4xx_HAL_Driver/Src/stm32l4xx_hal.c **** 
ARM GAS  C:\Users\Jakob\AppData\Local\Temp\cclvtDWl.s 			page 15


 387              		.loc 1 368 5 view .LVU83
 368:Drivers/STM32L4xx_HAL_Driver/Src/stm32l4xx_hal.c **** 
 388              		.loc 1 368 16 is_stmt 0 view .LVU84
 389 000e 1870     		strb	r0, [r3]
 371:Drivers/STM32L4xx_HAL_Driver/Src/stm32l4xx_hal.c ****     if (status != HAL_OK)
 390              		.loc 1 371 5 is_stmt 1 view .LVU85
 371:Drivers/STM32L4xx_HAL_Driver/Src/stm32l4xx_hal.c ****     if (status != HAL_OK)
 391              		.loc 1 371 14 is_stmt 0 view .LVU86
 392 0010 054B     		ldr	r3, .L39+4
 393 0012 1868     		ldr	r0, [r3]
 394              	.LVL19:
 371:Drivers/STM32L4xx_HAL_Driver/Src/stm32l4xx_hal.c ****     if (status != HAL_OK)
 395              		.loc 1 371 14 view .LVU87
 396 0014 FFF7FEFF 		bl	HAL_InitTick
 397              	.LVL20:
 372:Drivers/STM32L4xx_HAL_Driver/Src/stm32l4xx_hal.c ****     {
 398              		.loc 1 372 5 is_stmt 1 view .LVU88
 372:Drivers/STM32L4xx_HAL_Driver/Src/stm32l4xx_hal.c ****     {
 399              		.loc 1 372 8 is_stmt 0 view .LVU89
 400 0018 0028     		cmp	r0, #0
 401 001a F7D0     		beq	.L35
 375:Drivers/STM32L4xx_HAL_Driver/Src/stm32l4xx_hal.c ****     }
 402              		.loc 1 375 7 is_stmt 1 view .LVU90
 375:Drivers/STM32L4xx_HAL_Driver/Src/stm32l4xx_hal.c ****     }
 403              		.loc 1 375 18 is_stmt 0 view .LVU91
 404 001c 014B     		ldr	r3, .L39
 405 001e 1C70     		strb	r4, [r3]
 406 0020 F4E7     		b	.L35
 407              	.L40:
 408 0022 00BF     		.align	2
 409              	.L39:
 410 0024 00000000 		.word	uwTickFreq
 411 0028 00000000 		.word	uwTickPrio
 412              		.cfi_endproc
 413              	.LFE140:
 415              		.section	.text.HAL_GetTickFreq,"ax",%progbits
 416              		.align	1
 417              		.global	HAL_GetTickFreq
 418              		.syntax unified
 419              		.thumb
 420              		.thumb_func
 422              	HAL_GetTickFreq:
 423              	.LFB141:
 381:Drivers/STM32L4xx_HAL_Driver/Src/stm32l4xx_hal.c **** 
 382:Drivers/STM32L4xx_HAL_Driver/Src/stm32l4xx_hal.c **** /**
 383:Drivers/STM32L4xx_HAL_Driver/Src/stm32l4xx_hal.c ****   * @brief Return tick frequency.
 384:Drivers/STM32L4xx_HAL_Driver/Src/stm32l4xx_hal.c ****   * @retval Tick frequency.
 385:Drivers/STM32L4xx_HAL_Driver/Src/stm32l4xx_hal.c ****   *         Value of @ref HAL_TickFreqTypeDef.
 386:Drivers/STM32L4xx_HAL_Driver/Src/stm32l4xx_hal.c ****   */
 387:Drivers/STM32L4xx_HAL_Driver/Src/stm32l4xx_hal.c **** HAL_TickFreqTypeDef HAL_GetTickFreq(void)
 388:Drivers/STM32L4xx_HAL_Driver/Src/stm32l4xx_hal.c **** {
 424              		.loc 1 388 1 is_stmt 1 view -0
 425              		.cfi_startproc
 426              		@ args = 0, pretend = 0, frame = 0
 427              		@ frame_needed = 0, uses_anonymous_args = 0
 428              		@ link register save eliminated.
 389:Drivers/STM32L4xx_HAL_Driver/Src/stm32l4xx_hal.c ****   return uwTickFreq;
ARM GAS  C:\Users\Jakob\AppData\Local\Temp\cclvtDWl.s 			page 16


 429              		.loc 1 389 3 view .LVU93
 390:Drivers/STM32L4xx_HAL_Driver/Src/stm32l4xx_hal.c **** }
 430              		.loc 1 390 1 is_stmt 0 view .LVU94
 431 0000 014B     		ldr	r3, .L42
 432 0002 1878     		ldrb	r0, [r3]	@ zero_extendqisi2
 433 0004 7047     		bx	lr
 434              	.L43:
 435 0006 00BF     		.align	2
 436              	.L42:
 437 0008 00000000 		.word	uwTickFreq
 438              		.cfi_endproc
 439              	.LFE141:
 441              		.section	.text.HAL_Delay,"ax",%progbits
 442              		.align	1
 443              		.weak	HAL_Delay
 444              		.syntax unified
 445              		.thumb
 446              		.thumb_func
 448              	HAL_Delay:
 449              	.LVL21:
 450              	.LFB142:
 391:Drivers/STM32L4xx_HAL_Driver/Src/stm32l4xx_hal.c **** 
 392:Drivers/STM32L4xx_HAL_Driver/Src/stm32l4xx_hal.c **** /**
 393:Drivers/STM32L4xx_HAL_Driver/Src/stm32l4xx_hal.c ****   * @brief This function provides minimum delay (in milliseconds) based
 394:Drivers/STM32L4xx_HAL_Driver/Src/stm32l4xx_hal.c ****   *        on variable incremented.
 395:Drivers/STM32L4xx_HAL_Driver/Src/stm32l4xx_hal.c ****   * @note In the default implementation , SysTick timer is the source of time base.
 396:Drivers/STM32L4xx_HAL_Driver/Src/stm32l4xx_hal.c ****   *       It is used to generate interrupts at regular time intervals where uwTick
 397:Drivers/STM32L4xx_HAL_Driver/Src/stm32l4xx_hal.c ****   *       is incremented.
 398:Drivers/STM32L4xx_HAL_Driver/Src/stm32l4xx_hal.c ****   * @note This function is declared as __weak to be overwritten in case of other
 399:Drivers/STM32L4xx_HAL_Driver/Src/stm32l4xx_hal.c ****   *       implementations in user file.
 400:Drivers/STM32L4xx_HAL_Driver/Src/stm32l4xx_hal.c ****   * @param Delay  specifies the delay time length, in milliseconds.
 401:Drivers/STM32L4xx_HAL_Driver/Src/stm32l4xx_hal.c ****   * @retval None
 402:Drivers/STM32L4xx_HAL_Driver/Src/stm32l4xx_hal.c ****   */
 403:Drivers/STM32L4xx_HAL_Driver/Src/stm32l4xx_hal.c **** __weak void HAL_Delay(uint32_t Delay)
 404:Drivers/STM32L4xx_HAL_Driver/Src/stm32l4xx_hal.c **** {
 451              		.loc 1 404 1 is_stmt 1 view -0
 452              		.cfi_startproc
 453              		@ args = 0, pretend = 0, frame = 0
 454              		@ frame_needed = 0, uses_anonymous_args = 0
 455              		.loc 1 404 1 is_stmt 0 view .LVU96
 456 0000 38B5     		push	{r3, r4, r5, lr}
 457              	.LCFI4:
 458              		.cfi_def_cfa_offset 16
 459              		.cfi_offset 3, -16
 460              		.cfi_offset 4, -12
 461              		.cfi_offset 5, -8
 462              		.cfi_offset 14, -4
 463 0002 0446     		mov	r4, r0
 405:Drivers/STM32L4xx_HAL_Driver/Src/stm32l4xx_hal.c ****   uint32_t tickstart = HAL_GetTick();
 464              		.loc 1 405 3 is_stmt 1 view .LVU97
 465              		.loc 1 405 24 is_stmt 0 view .LVU98
 466 0004 FFF7FEFF 		bl	HAL_GetTick
 467              	.LVL22:
 468              		.loc 1 405 24 view .LVU99
 469 0008 0546     		mov	r5, r0
 470              	.LVL23:
 406:Drivers/STM32L4xx_HAL_Driver/Src/stm32l4xx_hal.c ****   uint32_t wait = Delay;
ARM GAS  C:\Users\Jakob\AppData\Local\Temp\cclvtDWl.s 			page 17


 471              		.loc 1 406 3 is_stmt 1 view .LVU100
 407:Drivers/STM32L4xx_HAL_Driver/Src/stm32l4xx_hal.c **** 
 408:Drivers/STM32L4xx_HAL_Driver/Src/stm32l4xx_hal.c ****   /* Add a period to guaranty minimum wait */
 409:Drivers/STM32L4xx_HAL_Driver/Src/stm32l4xx_hal.c ****   if (wait < HAL_MAX_DELAY)
 472              		.loc 1 409 3 view .LVU101
 473              		.loc 1 409 6 is_stmt 0 view .LVU102
 474 000a B4F1FF3F 		cmp	r4, #-1
 475 000e 02D0     		beq	.L46
 410:Drivers/STM32L4xx_HAL_Driver/Src/stm32l4xx_hal.c ****   {
 411:Drivers/STM32L4xx_HAL_Driver/Src/stm32l4xx_hal.c ****     wait += (uint32_t)uwTickFreq;
 476              		.loc 1 411 5 is_stmt 1 view .LVU103
 477              		.loc 1 411 13 is_stmt 0 view .LVU104
 478 0010 044B     		ldr	r3, .L48
 479 0012 1B78     		ldrb	r3, [r3]	@ zero_extendqisi2
 480              		.loc 1 411 10 view .LVU105
 481 0014 1C44     		add	r4, r4, r3
 482              	.LVL24:
 483              	.L46:
 412:Drivers/STM32L4xx_HAL_Driver/Src/stm32l4xx_hal.c ****   }
 413:Drivers/STM32L4xx_HAL_Driver/Src/stm32l4xx_hal.c **** 
 414:Drivers/STM32L4xx_HAL_Driver/Src/stm32l4xx_hal.c ****   while ((HAL_GetTick() - tickstart) < wait)
 415:Drivers/STM32L4xx_HAL_Driver/Src/stm32l4xx_hal.c ****   {
 416:Drivers/STM32L4xx_HAL_Driver/Src/stm32l4xx_hal.c ****   }
 484              		.loc 1 416 3 is_stmt 1 view .LVU106
 414:Drivers/STM32L4xx_HAL_Driver/Src/stm32l4xx_hal.c ****   {
 485              		.loc 1 414 38 discriminator 1 view .LVU107
 414:Drivers/STM32L4xx_HAL_Driver/Src/stm32l4xx_hal.c ****   {
 486              		.loc 1 414 11 is_stmt 0 discriminator 1 view .LVU108
 487 0016 FFF7FEFF 		bl	HAL_GetTick
 488              	.LVL25:
 414:Drivers/STM32L4xx_HAL_Driver/Src/stm32l4xx_hal.c ****   {
 489              		.loc 1 414 25 discriminator 1 view .LVU109
 490 001a 401B     		subs	r0, r0, r5
 414:Drivers/STM32L4xx_HAL_Driver/Src/stm32l4xx_hal.c ****   {
 491              		.loc 1 414 38 discriminator 1 view .LVU110
 492 001c A042     		cmp	r0, r4
 493 001e FAD3     		bcc	.L46
 417:Drivers/STM32L4xx_HAL_Driver/Src/stm32l4xx_hal.c **** }
 494              		.loc 1 417 1 view .LVU111
 495 0020 38BD     		pop	{r3, r4, r5, pc}
 496              	.LVL26:
 497              	.L49:
 498              		.loc 1 417 1 view .LVU112
 499 0022 00BF     		.align	2
 500              	.L48:
 501 0024 00000000 		.word	uwTickFreq
 502              		.cfi_endproc
 503              	.LFE142:
 505              		.section	.text.HAL_SuspendTick,"ax",%progbits
 506              		.align	1
 507              		.weak	HAL_SuspendTick
 508              		.syntax unified
 509              		.thumb
 510              		.thumb_func
 512              	HAL_SuspendTick:
 513              	.LFB143:
 418:Drivers/STM32L4xx_HAL_Driver/Src/stm32l4xx_hal.c **** 
ARM GAS  C:\Users\Jakob\AppData\Local\Temp\cclvtDWl.s 			page 18


 419:Drivers/STM32L4xx_HAL_Driver/Src/stm32l4xx_hal.c **** /**
 420:Drivers/STM32L4xx_HAL_Driver/Src/stm32l4xx_hal.c ****   * @brief Suspend Tick increment.
 421:Drivers/STM32L4xx_HAL_Driver/Src/stm32l4xx_hal.c ****   * @note In the default implementation , SysTick timer is the source of time base. It is
 422:Drivers/STM32L4xx_HAL_Driver/Src/stm32l4xx_hal.c ****   *       used to generate interrupts at regular time intervals. Once HAL_SuspendTick()
 423:Drivers/STM32L4xx_HAL_Driver/Src/stm32l4xx_hal.c ****   *       is called, the SysTick interrupt will be disabled and so Tick increment
 424:Drivers/STM32L4xx_HAL_Driver/Src/stm32l4xx_hal.c ****   *       is suspended.
 425:Drivers/STM32L4xx_HAL_Driver/Src/stm32l4xx_hal.c ****   * @note This function is declared as __weak to be overwritten in case of other
 426:Drivers/STM32L4xx_HAL_Driver/Src/stm32l4xx_hal.c ****   *       implementations in user file.
 427:Drivers/STM32L4xx_HAL_Driver/Src/stm32l4xx_hal.c ****   * @retval None
 428:Drivers/STM32L4xx_HAL_Driver/Src/stm32l4xx_hal.c ****   */
 429:Drivers/STM32L4xx_HAL_Driver/Src/stm32l4xx_hal.c **** __weak void HAL_SuspendTick(void)
 430:Drivers/STM32L4xx_HAL_Driver/Src/stm32l4xx_hal.c **** {
 514              		.loc 1 430 1 is_stmt 1 view -0
 515              		.cfi_startproc
 516              		@ args = 0, pretend = 0, frame = 0
 517              		@ frame_needed = 0, uses_anonymous_args = 0
 518              		@ link register save eliminated.
 431:Drivers/STM32L4xx_HAL_Driver/Src/stm32l4xx_hal.c ****   /* Disable SysTick Interrupt */
 432:Drivers/STM32L4xx_HAL_Driver/Src/stm32l4xx_hal.c ****   SysTick->CTRL &= ~SysTick_CTRL_TICKINT_Msk;
 519              		.loc 1 432 3 view .LVU114
 520              		.loc 1 432 10 is_stmt 0 view .LVU115
 521 0000 4FF0E022 		mov	r2, #-536813568
 522 0004 1369     		ldr	r3, [r2, #16]
 523              		.loc 1 432 17 view .LVU116
 524 0006 23F00203 		bic	r3, r3, #2
 525 000a 1361     		str	r3, [r2, #16]
 433:Drivers/STM32L4xx_HAL_Driver/Src/stm32l4xx_hal.c **** }
 526              		.loc 1 433 1 view .LVU117
 527 000c 7047     		bx	lr
 528              		.cfi_endproc
 529              	.LFE143:
 531              		.section	.text.HAL_ResumeTick,"ax",%progbits
 532              		.align	1
 533              		.weak	HAL_ResumeTick
 534              		.syntax unified
 535              		.thumb
 536              		.thumb_func
 538              	HAL_ResumeTick:
 539              	.LFB144:
 434:Drivers/STM32L4xx_HAL_Driver/Src/stm32l4xx_hal.c **** 
 435:Drivers/STM32L4xx_HAL_Driver/Src/stm32l4xx_hal.c **** /**
 436:Drivers/STM32L4xx_HAL_Driver/Src/stm32l4xx_hal.c ****   * @brief Resume Tick increment.
 437:Drivers/STM32L4xx_HAL_Driver/Src/stm32l4xx_hal.c ****   * @note In the default implementation , SysTick timer is the source of time base. It is
 438:Drivers/STM32L4xx_HAL_Driver/Src/stm32l4xx_hal.c ****   *       used to generate interrupts at regular time intervals. Once HAL_ResumeTick()
 439:Drivers/STM32L4xx_HAL_Driver/Src/stm32l4xx_hal.c ****   *       is called, the SysTick interrupt will be enabled and so Tick increment
 440:Drivers/STM32L4xx_HAL_Driver/Src/stm32l4xx_hal.c ****   *       is resumed.
 441:Drivers/STM32L4xx_HAL_Driver/Src/stm32l4xx_hal.c ****   * @note This function is declared as __weak to be overwritten in case of other
 442:Drivers/STM32L4xx_HAL_Driver/Src/stm32l4xx_hal.c ****   *       implementations in user file.
 443:Drivers/STM32L4xx_HAL_Driver/Src/stm32l4xx_hal.c ****   * @retval None
 444:Drivers/STM32L4xx_HAL_Driver/Src/stm32l4xx_hal.c ****   */
 445:Drivers/STM32L4xx_HAL_Driver/Src/stm32l4xx_hal.c **** __weak void HAL_ResumeTick(void)
 446:Drivers/STM32L4xx_HAL_Driver/Src/stm32l4xx_hal.c **** {
 540              		.loc 1 446 1 is_stmt 1 view -0
 541              		.cfi_startproc
 542              		@ args = 0, pretend = 0, frame = 0
 543              		@ frame_needed = 0, uses_anonymous_args = 0
 544              		@ link register save eliminated.
ARM GAS  C:\Users\Jakob\AppData\Local\Temp\cclvtDWl.s 			page 19


 447:Drivers/STM32L4xx_HAL_Driver/Src/stm32l4xx_hal.c ****   /* Enable SysTick Interrupt */
 448:Drivers/STM32L4xx_HAL_Driver/Src/stm32l4xx_hal.c ****   SysTick->CTRL  |= SysTick_CTRL_TICKINT_Msk;
 545              		.loc 1 448 3 view .LVU119
 546              		.loc 1 448 10 is_stmt 0 view .LVU120
 547 0000 4FF0E022 		mov	r2, #-536813568
 548 0004 1369     		ldr	r3, [r2, #16]
 549              		.loc 1 448 18 view .LVU121
 550 0006 43F00203 		orr	r3, r3, #2
 551 000a 1361     		str	r3, [r2, #16]
 449:Drivers/STM32L4xx_HAL_Driver/Src/stm32l4xx_hal.c **** }
 552              		.loc 1 449 1 view .LVU122
 553 000c 7047     		bx	lr
 554              		.cfi_endproc
 555              	.LFE144:
 557              		.section	.text.HAL_GetHalVersion,"ax",%progbits
 558              		.align	1
 559              		.global	HAL_GetHalVersion
 560              		.syntax unified
 561              		.thumb
 562              		.thumb_func
 564              	HAL_GetHalVersion:
 565              	.LFB145:
 450:Drivers/STM32L4xx_HAL_Driver/Src/stm32l4xx_hal.c **** 
 451:Drivers/STM32L4xx_HAL_Driver/Src/stm32l4xx_hal.c **** /**
 452:Drivers/STM32L4xx_HAL_Driver/Src/stm32l4xx_hal.c ****   * @brief  Return the HAL revision.
 453:Drivers/STM32L4xx_HAL_Driver/Src/stm32l4xx_hal.c ****   * @retval version : 0xXYZR (8bits for each decimal, R for RC)
 454:Drivers/STM32L4xx_HAL_Driver/Src/stm32l4xx_hal.c ****   */
 455:Drivers/STM32L4xx_HAL_Driver/Src/stm32l4xx_hal.c **** uint32_t HAL_GetHalVersion(void)
 456:Drivers/STM32L4xx_HAL_Driver/Src/stm32l4xx_hal.c **** {
 566              		.loc 1 456 1 is_stmt 1 view -0
 567              		.cfi_startproc
 568              		@ args = 0, pretend = 0, frame = 0
 569              		@ frame_needed = 0, uses_anonymous_args = 0
 570              		@ link register save eliminated.
 457:Drivers/STM32L4xx_HAL_Driver/Src/stm32l4xx_hal.c ****   return STM32L4XX_HAL_VERSION;
 571              		.loc 1 457 3 view .LVU124
 458:Drivers/STM32L4xx_HAL_Driver/Src/stm32l4xx_hal.c **** }
 572              		.loc 1 458 1 is_stmt 0 view .LVU125
 573 0000 0048     		ldr	r0, .L53
 574 0002 7047     		bx	lr
 575              	.L54:
 576              		.align	2
 577              	.L53:
 578 0004 00040D01 		.word	17630208
 579              		.cfi_endproc
 580              	.LFE145:
 582              		.section	.text.HAL_GetREVID,"ax",%progbits
 583              		.align	1
 584              		.global	HAL_GetREVID
 585              		.syntax unified
 586              		.thumb
 587              		.thumb_func
 589              	HAL_GetREVID:
 590              	.LFB146:
 459:Drivers/STM32L4xx_HAL_Driver/Src/stm32l4xx_hal.c **** 
 460:Drivers/STM32L4xx_HAL_Driver/Src/stm32l4xx_hal.c **** /**
 461:Drivers/STM32L4xx_HAL_Driver/Src/stm32l4xx_hal.c ****   * @brief  Return the device revision identifier.
ARM GAS  C:\Users\Jakob\AppData\Local\Temp\cclvtDWl.s 			page 20


 462:Drivers/STM32L4xx_HAL_Driver/Src/stm32l4xx_hal.c ****   * @retval Device revision identifier
 463:Drivers/STM32L4xx_HAL_Driver/Src/stm32l4xx_hal.c ****   */
 464:Drivers/STM32L4xx_HAL_Driver/Src/stm32l4xx_hal.c **** uint32_t HAL_GetREVID(void)
 465:Drivers/STM32L4xx_HAL_Driver/Src/stm32l4xx_hal.c **** {
 591              		.loc 1 465 1 is_stmt 1 view -0
 592              		.cfi_startproc
 593              		@ args = 0, pretend = 0, frame = 0
 594              		@ frame_needed = 0, uses_anonymous_args = 0
 595              		@ link register save eliminated.
 466:Drivers/STM32L4xx_HAL_Driver/Src/stm32l4xx_hal.c ****   return((DBGMCU->IDCODE & DBGMCU_IDCODE_REV_ID) >> 16);
 596              		.loc 1 466 3 view .LVU127
 597              		.loc 1 466 17 is_stmt 0 view .LVU128
 598 0000 014B     		ldr	r3, .L56
 599 0002 1868     		ldr	r0, [r3]
 467:Drivers/STM32L4xx_HAL_Driver/Src/stm32l4xx_hal.c **** }
 600              		.loc 1 467 1 view .LVU129
 601 0004 000C     		lsrs	r0, r0, #16
 602 0006 7047     		bx	lr
 603              	.L57:
 604              		.align	2
 605              	.L56:
 606 0008 002004E0 		.word	-536600576
 607              		.cfi_endproc
 608              	.LFE146:
 610              		.section	.text.HAL_GetDEVID,"ax",%progbits
 611              		.align	1
 612              		.global	HAL_GetDEVID
 613              		.syntax unified
 614              		.thumb
 615              		.thumb_func
 617              	HAL_GetDEVID:
 618              	.LFB147:
 468:Drivers/STM32L4xx_HAL_Driver/Src/stm32l4xx_hal.c **** 
 469:Drivers/STM32L4xx_HAL_Driver/Src/stm32l4xx_hal.c **** /**
 470:Drivers/STM32L4xx_HAL_Driver/Src/stm32l4xx_hal.c ****   * @brief  Return the device identifier.
 471:Drivers/STM32L4xx_HAL_Driver/Src/stm32l4xx_hal.c ****   * @retval Device identifier
 472:Drivers/STM32L4xx_HAL_Driver/Src/stm32l4xx_hal.c ****   */
 473:Drivers/STM32L4xx_HAL_Driver/Src/stm32l4xx_hal.c **** uint32_t HAL_GetDEVID(void)
 474:Drivers/STM32L4xx_HAL_Driver/Src/stm32l4xx_hal.c **** {
 619              		.loc 1 474 1 is_stmt 1 view -0
 620              		.cfi_startproc
 621              		@ args = 0, pretend = 0, frame = 0
 622              		@ frame_needed = 0, uses_anonymous_args = 0
 623              		@ link register save eliminated.
 475:Drivers/STM32L4xx_HAL_Driver/Src/stm32l4xx_hal.c ****   return(DBGMCU->IDCODE & DBGMCU_IDCODE_DEV_ID);
 624              		.loc 1 475 3 view .LVU131
 625              		.loc 1 475 16 is_stmt 0 view .LVU132
 626 0000 024B     		ldr	r3, .L59
 627 0002 1868     		ldr	r0, [r3]
 476:Drivers/STM32L4xx_HAL_Driver/Src/stm32l4xx_hal.c **** }
 628              		.loc 1 476 1 view .LVU133
 629 0004 C0F30B00 		ubfx	r0, r0, #0, #12
 630 0008 7047     		bx	lr
 631              	.L60:
 632 000a 00BF     		.align	2
 633              	.L59:
 634 000c 002004E0 		.word	-536600576
ARM GAS  C:\Users\Jakob\AppData\Local\Temp\cclvtDWl.s 			page 21


 635              		.cfi_endproc
 636              	.LFE147:
 638              		.section	.text.HAL_GetUIDw0,"ax",%progbits
 639              		.align	1
 640              		.global	HAL_GetUIDw0
 641              		.syntax unified
 642              		.thumb
 643              		.thumb_func
 645              	HAL_GetUIDw0:
 646              	.LFB148:
 477:Drivers/STM32L4xx_HAL_Driver/Src/stm32l4xx_hal.c **** 
 478:Drivers/STM32L4xx_HAL_Driver/Src/stm32l4xx_hal.c **** /**
 479:Drivers/STM32L4xx_HAL_Driver/Src/stm32l4xx_hal.c ****   * @brief  Return the first word of the unique device identifier (UID based on 96 bits)
 480:Drivers/STM32L4xx_HAL_Driver/Src/stm32l4xx_hal.c ****   * @retval Device identifier
 481:Drivers/STM32L4xx_HAL_Driver/Src/stm32l4xx_hal.c ****   */
 482:Drivers/STM32L4xx_HAL_Driver/Src/stm32l4xx_hal.c **** uint32_t HAL_GetUIDw0(void)
 483:Drivers/STM32L4xx_HAL_Driver/Src/stm32l4xx_hal.c **** {
 647              		.loc 1 483 1 is_stmt 1 view -0
 648              		.cfi_startproc
 649              		@ args = 0, pretend = 0, frame = 0
 650              		@ frame_needed = 0, uses_anonymous_args = 0
 651              		@ link register save eliminated.
 484:Drivers/STM32L4xx_HAL_Driver/Src/stm32l4xx_hal.c ****   return(READ_REG(*((uint32_t *)UID_BASE)));
 652              		.loc 1 484 3 view .LVU135
 485:Drivers/STM32L4xx_HAL_Driver/Src/stm32l4xx_hal.c **** }
 653              		.loc 1 485 1 is_stmt 0 view .LVU136
 654 0000 014B     		ldr	r3, .L62
 655 0002 D3F89005 		ldr	r0, [r3, #1424]
 656 0006 7047     		bx	lr
 657              	.L63:
 658              		.align	2
 659              	.L62:
 660 0008 0070FF1F 		.word	536834048
 661              		.cfi_endproc
 662              	.LFE148:
 664              		.section	.text.HAL_GetUIDw1,"ax",%progbits
 665              		.align	1
 666              		.global	HAL_GetUIDw1
 667              		.syntax unified
 668              		.thumb
 669              		.thumb_func
 671              	HAL_GetUIDw1:
 672              	.LFB149:
 486:Drivers/STM32L4xx_HAL_Driver/Src/stm32l4xx_hal.c **** 
 487:Drivers/STM32L4xx_HAL_Driver/Src/stm32l4xx_hal.c **** /**
 488:Drivers/STM32L4xx_HAL_Driver/Src/stm32l4xx_hal.c ****   * @brief  Return the second word of the unique device identifier (UID based on 96 bits)
 489:Drivers/STM32L4xx_HAL_Driver/Src/stm32l4xx_hal.c ****   * @retval Device identifier
 490:Drivers/STM32L4xx_HAL_Driver/Src/stm32l4xx_hal.c ****   */
 491:Drivers/STM32L4xx_HAL_Driver/Src/stm32l4xx_hal.c **** uint32_t HAL_GetUIDw1(void)
 492:Drivers/STM32L4xx_HAL_Driver/Src/stm32l4xx_hal.c **** {
 673              		.loc 1 492 1 is_stmt 1 view -0
 674              		.cfi_startproc
 675              		@ args = 0, pretend = 0, frame = 0
 676              		@ frame_needed = 0, uses_anonymous_args = 0
 677              		@ link register save eliminated.
 493:Drivers/STM32L4xx_HAL_Driver/Src/stm32l4xx_hal.c ****   return(READ_REG(*((uint32_t *)(UID_BASE + 4U))));
 678              		.loc 1 493 3 view .LVU138
ARM GAS  C:\Users\Jakob\AppData\Local\Temp\cclvtDWl.s 			page 22


 494:Drivers/STM32L4xx_HAL_Driver/Src/stm32l4xx_hal.c **** }
 679              		.loc 1 494 1 is_stmt 0 view .LVU139
 680 0000 014B     		ldr	r3, .L65
 681 0002 D3F89405 		ldr	r0, [r3, #1428]
 682 0006 7047     		bx	lr
 683              	.L66:
 684              		.align	2
 685              	.L65:
 686 0008 0070FF1F 		.word	536834048
 687              		.cfi_endproc
 688              	.LFE149:
 690              		.section	.text.HAL_GetUIDw2,"ax",%progbits
 691              		.align	1
 692              		.global	HAL_GetUIDw2
 693              		.syntax unified
 694              		.thumb
 695              		.thumb_func
 697              	HAL_GetUIDw2:
 698              	.LFB150:
 495:Drivers/STM32L4xx_HAL_Driver/Src/stm32l4xx_hal.c **** 
 496:Drivers/STM32L4xx_HAL_Driver/Src/stm32l4xx_hal.c **** /**
 497:Drivers/STM32L4xx_HAL_Driver/Src/stm32l4xx_hal.c ****   * @brief  Return the third word of the unique device identifier (UID based on 96 bits)
 498:Drivers/STM32L4xx_HAL_Driver/Src/stm32l4xx_hal.c ****   * @retval Device identifier
 499:Drivers/STM32L4xx_HAL_Driver/Src/stm32l4xx_hal.c ****   */
 500:Drivers/STM32L4xx_HAL_Driver/Src/stm32l4xx_hal.c **** uint32_t HAL_GetUIDw2(void)
 501:Drivers/STM32L4xx_HAL_Driver/Src/stm32l4xx_hal.c **** {
 699              		.loc 1 501 1 is_stmt 1 view -0
 700              		.cfi_startproc
 701              		@ args = 0, pretend = 0, frame = 0
 702              		@ frame_needed = 0, uses_anonymous_args = 0
 703              		@ link register save eliminated.
 502:Drivers/STM32L4xx_HAL_Driver/Src/stm32l4xx_hal.c ****   return(READ_REG(*((uint32_t *)(UID_BASE + 8U))));
 704              		.loc 1 502 3 view .LVU141
 503:Drivers/STM32L4xx_HAL_Driver/Src/stm32l4xx_hal.c **** }
 705              		.loc 1 503 1 is_stmt 0 view .LVU142
 706 0000 014B     		ldr	r3, .L68
 707 0002 D3F89805 		ldr	r0, [r3, #1432]
 708 0006 7047     		bx	lr
 709              	.L69:
 710              		.align	2
 711              	.L68:
 712 0008 0070FF1F 		.word	536834048
 713              		.cfi_endproc
 714              	.LFE150:
 716              		.section	.text.HAL_DBGMCU_EnableDBGSleepMode,"ax",%progbits
 717              		.align	1
 718              		.global	HAL_DBGMCU_EnableDBGSleepMode
 719              		.syntax unified
 720              		.thumb
 721              		.thumb_func
 723              	HAL_DBGMCU_EnableDBGSleepMode:
 724              	.LFB151:
 504:Drivers/STM32L4xx_HAL_Driver/Src/stm32l4xx_hal.c **** 
 505:Drivers/STM32L4xx_HAL_Driver/Src/stm32l4xx_hal.c **** /**
 506:Drivers/STM32L4xx_HAL_Driver/Src/stm32l4xx_hal.c ****   * @}
 507:Drivers/STM32L4xx_HAL_Driver/Src/stm32l4xx_hal.c ****   */
 508:Drivers/STM32L4xx_HAL_Driver/Src/stm32l4xx_hal.c **** 
ARM GAS  C:\Users\Jakob\AppData\Local\Temp\cclvtDWl.s 			page 23


 509:Drivers/STM32L4xx_HAL_Driver/Src/stm32l4xx_hal.c **** /** @defgroup HAL_Exported_Functions_Group3 HAL Debug functions
 510:Drivers/STM32L4xx_HAL_Driver/Src/stm32l4xx_hal.c ****  *  @brief    HAL Debug functions
 511:Drivers/STM32L4xx_HAL_Driver/Src/stm32l4xx_hal.c ****  *
 512:Drivers/STM32L4xx_HAL_Driver/Src/stm32l4xx_hal.c **** @verbatim
 513:Drivers/STM32L4xx_HAL_Driver/Src/stm32l4xx_hal.c ****  ===============================================================================
 514:Drivers/STM32L4xx_HAL_Driver/Src/stm32l4xx_hal.c ****                       ##### HAL Debug functions #####
 515:Drivers/STM32L4xx_HAL_Driver/Src/stm32l4xx_hal.c ****  ===============================================================================
 516:Drivers/STM32L4xx_HAL_Driver/Src/stm32l4xx_hal.c ****     [..]  This section provides functions allowing to:
 517:Drivers/STM32L4xx_HAL_Driver/Src/stm32l4xx_hal.c ****       (+) Enable/Disable Debug module during SLEEP mode
 518:Drivers/STM32L4xx_HAL_Driver/Src/stm32l4xx_hal.c ****       (+) Enable/Disable Debug module during STOP0/STOP1/STOP2 modes
 519:Drivers/STM32L4xx_HAL_Driver/Src/stm32l4xx_hal.c ****       (+) Enable/Disable Debug module during STANDBY mode
 520:Drivers/STM32L4xx_HAL_Driver/Src/stm32l4xx_hal.c **** 
 521:Drivers/STM32L4xx_HAL_Driver/Src/stm32l4xx_hal.c **** @endverbatim
 522:Drivers/STM32L4xx_HAL_Driver/Src/stm32l4xx_hal.c ****   * @{
 523:Drivers/STM32L4xx_HAL_Driver/Src/stm32l4xx_hal.c ****   */
 524:Drivers/STM32L4xx_HAL_Driver/Src/stm32l4xx_hal.c **** 
 525:Drivers/STM32L4xx_HAL_Driver/Src/stm32l4xx_hal.c **** /**
 526:Drivers/STM32L4xx_HAL_Driver/Src/stm32l4xx_hal.c ****   * @brief  Enable the Debug Module during SLEEP mode.
 527:Drivers/STM32L4xx_HAL_Driver/Src/stm32l4xx_hal.c ****   * @retval None
 528:Drivers/STM32L4xx_HAL_Driver/Src/stm32l4xx_hal.c ****   */
 529:Drivers/STM32L4xx_HAL_Driver/Src/stm32l4xx_hal.c **** void HAL_DBGMCU_EnableDBGSleepMode(void)
 530:Drivers/STM32L4xx_HAL_Driver/Src/stm32l4xx_hal.c **** {
 725              		.loc 1 530 1 is_stmt 1 view -0
 726              		.cfi_startproc
 727              		@ args = 0, pretend = 0, frame = 0
 728              		@ frame_needed = 0, uses_anonymous_args = 0
 729              		@ link register save eliminated.
 531:Drivers/STM32L4xx_HAL_Driver/Src/stm32l4xx_hal.c ****   SET_BIT(DBGMCU->CR, DBGMCU_CR_DBG_SLEEP);
 730              		.loc 1 531 3 view .LVU144
 731 0000 024A     		ldr	r2, .L71
 732 0002 5368     		ldr	r3, [r2, #4]
 733 0004 43F00103 		orr	r3, r3, #1
 734 0008 5360     		str	r3, [r2, #4]
 532:Drivers/STM32L4xx_HAL_Driver/Src/stm32l4xx_hal.c **** }
 735              		.loc 1 532 1 is_stmt 0 view .LVU145
 736 000a 7047     		bx	lr
 737              	.L72:
 738              		.align	2
 739              	.L71:
 740 000c 002004E0 		.word	-536600576
 741              		.cfi_endproc
 742              	.LFE151:
 744              		.section	.text.HAL_DBGMCU_DisableDBGSleepMode,"ax",%progbits
 745              		.align	1
 746              		.global	HAL_DBGMCU_DisableDBGSleepMode
 747              		.syntax unified
 748              		.thumb
 749              		.thumb_func
 751              	HAL_DBGMCU_DisableDBGSleepMode:
 752              	.LFB152:
 533:Drivers/STM32L4xx_HAL_Driver/Src/stm32l4xx_hal.c **** 
 534:Drivers/STM32L4xx_HAL_Driver/Src/stm32l4xx_hal.c **** /**
 535:Drivers/STM32L4xx_HAL_Driver/Src/stm32l4xx_hal.c ****   * @brief  Disable the Debug Module during SLEEP mode.
 536:Drivers/STM32L4xx_HAL_Driver/Src/stm32l4xx_hal.c ****   * @retval None
 537:Drivers/STM32L4xx_HAL_Driver/Src/stm32l4xx_hal.c ****   */
 538:Drivers/STM32L4xx_HAL_Driver/Src/stm32l4xx_hal.c **** void HAL_DBGMCU_DisableDBGSleepMode(void)
 539:Drivers/STM32L4xx_HAL_Driver/Src/stm32l4xx_hal.c **** {
ARM GAS  C:\Users\Jakob\AppData\Local\Temp\cclvtDWl.s 			page 24


 753              		.loc 1 539 1 is_stmt 1 view -0
 754              		.cfi_startproc
 755              		@ args = 0, pretend = 0, frame = 0
 756              		@ frame_needed = 0, uses_anonymous_args = 0
 757              		@ link register save eliminated.
 540:Drivers/STM32L4xx_HAL_Driver/Src/stm32l4xx_hal.c ****   CLEAR_BIT(DBGMCU->CR, DBGMCU_CR_DBG_SLEEP);
 758              		.loc 1 540 3 view .LVU147
 759 0000 024A     		ldr	r2, .L74
 760 0002 5368     		ldr	r3, [r2, #4]
 761 0004 23F00103 		bic	r3, r3, #1
 762 0008 5360     		str	r3, [r2, #4]
 541:Drivers/STM32L4xx_HAL_Driver/Src/stm32l4xx_hal.c **** }
 763              		.loc 1 541 1 is_stmt 0 view .LVU148
 764 000a 7047     		bx	lr
 765              	.L75:
 766              		.align	2
 767              	.L74:
 768 000c 002004E0 		.word	-536600576
 769              		.cfi_endproc
 770              	.LFE152:
 772              		.section	.text.HAL_DBGMCU_EnableDBGStopMode,"ax",%progbits
 773              		.align	1
 774              		.global	HAL_DBGMCU_EnableDBGStopMode
 775              		.syntax unified
 776              		.thumb
 777              		.thumb_func
 779              	HAL_DBGMCU_EnableDBGStopMode:
 780              	.LFB153:
 542:Drivers/STM32L4xx_HAL_Driver/Src/stm32l4xx_hal.c **** 
 543:Drivers/STM32L4xx_HAL_Driver/Src/stm32l4xx_hal.c **** /**
 544:Drivers/STM32L4xx_HAL_Driver/Src/stm32l4xx_hal.c ****   * @brief  Enable the Debug Module during STOP0/STOP1/STOP2 modes.
 545:Drivers/STM32L4xx_HAL_Driver/Src/stm32l4xx_hal.c ****   * @retval None
 546:Drivers/STM32L4xx_HAL_Driver/Src/stm32l4xx_hal.c ****   */
 547:Drivers/STM32L4xx_HAL_Driver/Src/stm32l4xx_hal.c **** void HAL_DBGMCU_EnableDBGStopMode(void)
 548:Drivers/STM32L4xx_HAL_Driver/Src/stm32l4xx_hal.c **** {
 781              		.loc 1 548 1 is_stmt 1 view -0
 782              		.cfi_startproc
 783              		@ args = 0, pretend = 0, frame = 0
 784              		@ frame_needed = 0, uses_anonymous_args = 0
 785              		@ link register save eliminated.
 549:Drivers/STM32L4xx_HAL_Driver/Src/stm32l4xx_hal.c ****   SET_BIT(DBGMCU->CR, DBGMCU_CR_DBG_STOP);
 786              		.loc 1 549 3 view .LVU150
 787 0000 024A     		ldr	r2, .L77
 788 0002 5368     		ldr	r3, [r2, #4]
 789 0004 43F00203 		orr	r3, r3, #2
 790 0008 5360     		str	r3, [r2, #4]
 550:Drivers/STM32L4xx_HAL_Driver/Src/stm32l4xx_hal.c **** }
 791              		.loc 1 550 1 is_stmt 0 view .LVU151
 792 000a 7047     		bx	lr
 793              	.L78:
 794              		.align	2
 795              	.L77:
 796 000c 002004E0 		.word	-536600576
 797              		.cfi_endproc
 798              	.LFE153:
 800              		.section	.text.HAL_DBGMCU_DisableDBGStopMode,"ax",%progbits
 801              		.align	1
ARM GAS  C:\Users\Jakob\AppData\Local\Temp\cclvtDWl.s 			page 25


 802              		.global	HAL_DBGMCU_DisableDBGStopMode
 803              		.syntax unified
 804              		.thumb
 805              		.thumb_func
 807              	HAL_DBGMCU_DisableDBGStopMode:
 808              	.LFB154:
 551:Drivers/STM32L4xx_HAL_Driver/Src/stm32l4xx_hal.c **** 
 552:Drivers/STM32L4xx_HAL_Driver/Src/stm32l4xx_hal.c **** /**
 553:Drivers/STM32L4xx_HAL_Driver/Src/stm32l4xx_hal.c ****   * @brief  Disable the Debug Module during STOP0/STOP1/STOP2 modes.
 554:Drivers/STM32L4xx_HAL_Driver/Src/stm32l4xx_hal.c ****   * @retval None
 555:Drivers/STM32L4xx_HAL_Driver/Src/stm32l4xx_hal.c ****   */
 556:Drivers/STM32L4xx_HAL_Driver/Src/stm32l4xx_hal.c **** void HAL_DBGMCU_DisableDBGStopMode(void)
 557:Drivers/STM32L4xx_HAL_Driver/Src/stm32l4xx_hal.c **** {
 809              		.loc 1 557 1 is_stmt 1 view -0
 810              		.cfi_startproc
 811              		@ args = 0, pretend = 0, frame = 0
 812              		@ frame_needed = 0, uses_anonymous_args = 0
 813              		@ link register save eliminated.
 558:Drivers/STM32L4xx_HAL_Driver/Src/stm32l4xx_hal.c ****   CLEAR_BIT(DBGMCU->CR, DBGMCU_CR_DBG_STOP);
 814              		.loc 1 558 3 view .LVU153
 815 0000 024A     		ldr	r2, .L80
 816 0002 5368     		ldr	r3, [r2, #4]
 817 0004 23F00203 		bic	r3, r3, #2
 818 0008 5360     		str	r3, [r2, #4]
 559:Drivers/STM32L4xx_HAL_Driver/Src/stm32l4xx_hal.c **** }
 819              		.loc 1 559 1 is_stmt 0 view .LVU154
 820 000a 7047     		bx	lr
 821              	.L81:
 822              		.align	2
 823              	.L80:
 824 000c 002004E0 		.word	-536600576
 825              		.cfi_endproc
 826              	.LFE154:
 828              		.section	.text.HAL_DBGMCU_EnableDBGStandbyMode,"ax",%progbits
 829              		.align	1
 830              		.global	HAL_DBGMCU_EnableDBGStandbyMode
 831              		.syntax unified
 832              		.thumb
 833              		.thumb_func
 835              	HAL_DBGMCU_EnableDBGStandbyMode:
 836              	.LFB155:
 560:Drivers/STM32L4xx_HAL_Driver/Src/stm32l4xx_hal.c **** 
 561:Drivers/STM32L4xx_HAL_Driver/Src/stm32l4xx_hal.c **** /**
 562:Drivers/STM32L4xx_HAL_Driver/Src/stm32l4xx_hal.c ****   * @brief  Enable the Debug Module during STANDBY mode.
 563:Drivers/STM32L4xx_HAL_Driver/Src/stm32l4xx_hal.c ****   * @retval None
 564:Drivers/STM32L4xx_HAL_Driver/Src/stm32l4xx_hal.c ****   */
 565:Drivers/STM32L4xx_HAL_Driver/Src/stm32l4xx_hal.c **** void HAL_DBGMCU_EnableDBGStandbyMode(void)
 566:Drivers/STM32L4xx_HAL_Driver/Src/stm32l4xx_hal.c **** {
 837              		.loc 1 566 1 is_stmt 1 view -0
 838              		.cfi_startproc
 839              		@ args = 0, pretend = 0, frame = 0
 840              		@ frame_needed = 0, uses_anonymous_args = 0
 841              		@ link register save eliminated.
 567:Drivers/STM32L4xx_HAL_Driver/Src/stm32l4xx_hal.c ****   SET_BIT(DBGMCU->CR, DBGMCU_CR_DBG_STANDBY);
 842              		.loc 1 567 3 view .LVU156
 843 0000 024A     		ldr	r2, .L83
 844 0002 5368     		ldr	r3, [r2, #4]
ARM GAS  C:\Users\Jakob\AppData\Local\Temp\cclvtDWl.s 			page 26


 845 0004 43F00403 		orr	r3, r3, #4
 846 0008 5360     		str	r3, [r2, #4]
 568:Drivers/STM32L4xx_HAL_Driver/Src/stm32l4xx_hal.c **** }
 847              		.loc 1 568 1 is_stmt 0 view .LVU157
 848 000a 7047     		bx	lr
 849              	.L84:
 850              		.align	2
 851              	.L83:
 852 000c 002004E0 		.word	-536600576
 853              		.cfi_endproc
 854              	.LFE155:
 856              		.section	.text.HAL_DBGMCU_DisableDBGStandbyMode,"ax",%progbits
 857              		.align	1
 858              		.global	HAL_DBGMCU_DisableDBGStandbyMode
 859              		.syntax unified
 860              		.thumb
 861              		.thumb_func
 863              	HAL_DBGMCU_DisableDBGStandbyMode:
 864              	.LFB156:
 569:Drivers/STM32L4xx_HAL_Driver/Src/stm32l4xx_hal.c **** 
 570:Drivers/STM32L4xx_HAL_Driver/Src/stm32l4xx_hal.c **** /**
 571:Drivers/STM32L4xx_HAL_Driver/Src/stm32l4xx_hal.c ****   * @brief  Disable the Debug Module during STANDBY mode.
 572:Drivers/STM32L4xx_HAL_Driver/Src/stm32l4xx_hal.c ****   * @retval None
 573:Drivers/STM32L4xx_HAL_Driver/Src/stm32l4xx_hal.c ****   */
 574:Drivers/STM32L4xx_HAL_Driver/Src/stm32l4xx_hal.c **** void HAL_DBGMCU_DisableDBGStandbyMode(void)
 575:Drivers/STM32L4xx_HAL_Driver/Src/stm32l4xx_hal.c **** {
 865              		.loc 1 575 1 is_stmt 1 view -0
 866              		.cfi_startproc
 867              		@ args = 0, pretend = 0, frame = 0
 868              		@ frame_needed = 0, uses_anonymous_args = 0
 869              		@ link register save eliminated.
 576:Drivers/STM32L4xx_HAL_Driver/Src/stm32l4xx_hal.c ****   CLEAR_BIT(DBGMCU->CR, DBGMCU_CR_DBG_STANDBY);
 870              		.loc 1 576 3 view .LVU159
 871 0000 024A     		ldr	r2, .L86
 872 0002 5368     		ldr	r3, [r2, #4]
 873 0004 23F00403 		bic	r3, r3, #4
 874 0008 5360     		str	r3, [r2, #4]
 577:Drivers/STM32L4xx_HAL_Driver/Src/stm32l4xx_hal.c **** }
 875              		.loc 1 577 1 is_stmt 0 view .LVU160
 876 000a 7047     		bx	lr
 877              	.L87:
 878              		.align	2
 879              	.L86:
 880 000c 002004E0 		.word	-536600576
 881              		.cfi_endproc
 882              	.LFE156:
 884              		.section	.text.HAL_SYSCFG_SRAM2Erase,"ax",%progbits
 885              		.align	1
 886              		.global	HAL_SYSCFG_SRAM2Erase
 887              		.syntax unified
 888              		.thumb
 889              		.thumb_func
 891              	HAL_SYSCFG_SRAM2Erase:
 892              	.LFB157:
 578:Drivers/STM32L4xx_HAL_Driver/Src/stm32l4xx_hal.c **** 
 579:Drivers/STM32L4xx_HAL_Driver/Src/stm32l4xx_hal.c **** /**
 580:Drivers/STM32L4xx_HAL_Driver/Src/stm32l4xx_hal.c ****   * @}
ARM GAS  C:\Users\Jakob\AppData\Local\Temp\cclvtDWl.s 			page 27


 581:Drivers/STM32L4xx_HAL_Driver/Src/stm32l4xx_hal.c ****   */
 582:Drivers/STM32L4xx_HAL_Driver/Src/stm32l4xx_hal.c **** 
 583:Drivers/STM32L4xx_HAL_Driver/Src/stm32l4xx_hal.c **** /** @defgroup HAL_Exported_Functions_Group4 HAL SYSCFG configuration functions
 584:Drivers/STM32L4xx_HAL_Driver/Src/stm32l4xx_hal.c ****  *  @brief    HAL SYSCFG configuration functions
 585:Drivers/STM32L4xx_HAL_Driver/Src/stm32l4xx_hal.c ****  *
 586:Drivers/STM32L4xx_HAL_Driver/Src/stm32l4xx_hal.c **** @verbatim
 587:Drivers/STM32L4xx_HAL_Driver/Src/stm32l4xx_hal.c ****  ===============================================================================
 588:Drivers/STM32L4xx_HAL_Driver/Src/stm32l4xx_hal.c ****                       ##### HAL SYSCFG configuration functions #####
 589:Drivers/STM32L4xx_HAL_Driver/Src/stm32l4xx_hal.c ****  ===============================================================================
 590:Drivers/STM32L4xx_HAL_Driver/Src/stm32l4xx_hal.c ****     [..]  This section provides functions allowing to:
 591:Drivers/STM32L4xx_HAL_Driver/Src/stm32l4xx_hal.c ****       (+) Start a hardware SRAM2 erase operation
 592:Drivers/STM32L4xx_HAL_Driver/Src/stm32l4xx_hal.c ****       (+) Enable/Disable the Internal FLASH Bank Swapping
 593:Drivers/STM32L4xx_HAL_Driver/Src/stm32l4xx_hal.c ****       (+) Configure the Voltage reference buffer
 594:Drivers/STM32L4xx_HAL_Driver/Src/stm32l4xx_hal.c ****       (+) Enable/Disable the Voltage reference buffer
 595:Drivers/STM32L4xx_HAL_Driver/Src/stm32l4xx_hal.c ****       (+) Enable/Disable the I/O analog switch voltage booster
 596:Drivers/STM32L4xx_HAL_Driver/Src/stm32l4xx_hal.c **** 
 597:Drivers/STM32L4xx_HAL_Driver/Src/stm32l4xx_hal.c **** @endverbatim
 598:Drivers/STM32L4xx_HAL_Driver/Src/stm32l4xx_hal.c ****   * @{
 599:Drivers/STM32L4xx_HAL_Driver/Src/stm32l4xx_hal.c ****   */
 600:Drivers/STM32L4xx_HAL_Driver/Src/stm32l4xx_hal.c **** 
 601:Drivers/STM32L4xx_HAL_Driver/Src/stm32l4xx_hal.c **** /**
 602:Drivers/STM32L4xx_HAL_Driver/Src/stm32l4xx_hal.c ****   * @brief  Start a hardware SRAM2 erase operation.
 603:Drivers/STM32L4xx_HAL_Driver/Src/stm32l4xx_hal.c ****   * @note   As long as SRAM2 is not erased the SRAM2ER bit will be set.
 604:Drivers/STM32L4xx_HAL_Driver/Src/stm32l4xx_hal.c ****   *         This bit is automatically reset at the end of the SRAM2 erase operation.
 605:Drivers/STM32L4xx_HAL_Driver/Src/stm32l4xx_hal.c ****   * @retval None
 606:Drivers/STM32L4xx_HAL_Driver/Src/stm32l4xx_hal.c ****   */
 607:Drivers/STM32L4xx_HAL_Driver/Src/stm32l4xx_hal.c **** void HAL_SYSCFG_SRAM2Erase(void)
 608:Drivers/STM32L4xx_HAL_Driver/Src/stm32l4xx_hal.c **** {
 893              		.loc 1 608 1 is_stmt 1 view -0
 894              		.cfi_startproc
 895              		@ args = 0, pretend = 0, frame = 0
 896              		@ frame_needed = 0, uses_anonymous_args = 0
 897              		@ link register save eliminated.
 609:Drivers/STM32L4xx_HAL_Driver/Src/stm32l4xx_hal.c ****   /* unlock the write protection of the SRAM2ER bit */
 610:Drivers/STM32L4xx_HAL_Driver/Src/stm32l4xx_hal.c ****   SYSCFG->SKR = 0xCA;
 898              		.loc 1 610 3 view .LVU162
 899              		.loc 1 610 15 is_stmt 0 view .LVU163
 900 0000 044B     		ldr	r3, .L89
 901 0002 CA22     		movs	r2, #202
 902 0004 5A62     		str	r2, [r3, #36]
 611:Drivers/STM32L4xx_HAL_Driver/Src/stm32l4xx_hal.c ****   SYSCFG->SKR = 0x53;
 903              		.loc 1 611 3 is_stmt 1 view .LVU164
 904              		.loc 1 611 15 is_stmt 0 view .LVU165
 905 0006 5322     		movs	r2, #83
 906 0008 5A62     		str	r2, [r3, #36]
 612:Drivers/STM32L4xx_HAL_Driver/Src/stm32l4xx_hal.c ****   /* Starts a hardware SRAM2 erase operation*/
 613:Drivers/STM32L4xx_HAL_Driver/Src/stm32l4xx_hal.c ****   *(__IO uint32_t *) SCSR_SRAM2ER_BB = 0x00000001UL;
 907              		.loc 1 613 3 is_stmt 1 view .LVU166
 908              		.loc 1 613 38 is_stmt 0 view .LVU167
 909 000a 034B     		ldr	r3, .L89+4
 910 000c 0122     		movs	r2, #1
 911 000e C3F80023 		str	r2, [r3, #768]
 614:Drivers/STM32L4xx_HAL_Driver/Src/stm32l4xx_hal.c **** }
 912              		.loc 1 614 1 view .LVU168
 913 0012 7047     		bx	lr
 914              	.L90:
 915              		.align	2
ARM GAS  C:\Users\Jakob\AppData\Local\Temp\cclvtDWl.s 			page 28


 916              	.L89:
 917 0014 00000140 		.word	1073807360
 918 0018 00002042 		.word	1109393408
 919              		.cfi_endproc
 920              	.LFE157:
 922              		.section	.text.HAL_SYSCFG_EnableMemorySwappingBank,"ax",%progbits
 923              		.align	1
 924              		.global	HAL_SYSCFG_EnableMemorySwappingBank
 925              		.syntax unified
 926              		.thumb
 927              		.thumb_func
 929              	HAL_SYSCFG_EnableMemorySwappingBank:
 930              	.LFB158:
 615:Drivers/STM32L4xx_HAL_Driver/Src/stm32l4xx_hal.c **** 
 616:Drivers/STM32L4xx_HAL_Driver/Src/stm32l4xx_hal.c **** /**
 617:Drivers/STM32L4xx_HAL_Driver/Src/stm32l4xx_hal.c ****   * @brief  Enable the Internal FLASH Bank Swapping.
 618:Drivers/STM32L4xx_HAL_Driver/Src/stm32l4xx_hal.c ****   *
 619:Drivers/STM32L4xx_HAL_Driver/Src/stm32l4xx_hal.c ****   * @note   This function can be used only for STM32L4xx devices.
 620:Drivers/STM32L4xx_HAL_Driver/Src/stm32l4xx_hal.c ****   *
 621:Drivers/STM32L4xx_HAL_Driver/Src/stm32l4xx_hal.c ****   * @note   Flash Bank2 mapped at 0x08000000 (and aliased @0x00000000)
 622:Drivers/STM32L4xx_HAL_Driver/Src/stm32l4xx_hal.c ****   *         and Flash Bank1 mapped at 0x08100000 (and aliased at 0x00100000)
 623:Drivers/STM32L4xx_HAL_Driver/Src/stm32l4xx_hal.c ****   *
 624:Drivers/STM32L4xx_HAL_Driver/Src/stm32l4xx_hal.c ****   * @retval None
 625:Drivers/STM32L4xx_HAL_Driver/Src/stm32l4xx_hal.c ****   */
 626:Drivers/STM32L4xx_HAL_Driver/Src/stm32l4xx_hal.c **** void HAL_SYSCFG_EnableMemorySwappingBank(void)
 627:Drivers/STM32L4xx_HAL_Driver/Src/stm32l4xx_hal.c **** {
 931              		.loc 1 627 1 is_stmt 1 view -0
 932              		.cfi_startproc
 933              		@ args = 0, pretend = 0, frame = 0
 934              		@ frame_needed = 0, uses_anonymous_args = 0
 935              		@ link register save eliminated.
 628:Drivers/STM32L4xx_HAL_Driver/Src/stm32l4xx_hal.c ****   *(__IO uint32_t *)FB_MODE_BB = 0x00000001UL;
 936              		.loc 1 628 3 view .LVU170
 937              		.loc 1 628 32 is_stmt 0 view .LVU171
 938 0000 014B     		ldr	r3, .L92
 939 0002 0122     		movs	r2, #1
 940 0004 1A62     		str	r2, [r3, #32]
 629:Drivers/STM32L4xx_HAL_Driver/Src/stm32l4xx_hal.c **** }
 941              		.loc 1 629 1 view .LVU172
 942 0006 7047     		bx	lr
 943              	.L93:
 944              		.align	2
 945              	.L92:
 946 0008 00002042 		.word	1109393408
 947              		.cfi_endproc
 948              	.LFE158:
 950              		.section	.text.HAL_SYSCFG_DisableMemorySwappingBank,"ax",%progbits
 951              		.align	1
 952              		.global	HAL_SYSCFG_DisableMemorySwappingBank
 953              		.syntax unified
 954              		.thumb
 955              		.thumb_func
 957              	HAL_SYSCFG_DisableMemorySwappingBank:
 958              	.LFB159:
 630:Drivers/STM32L4xx_HAL_Driver/Src/stm32l4xx_hal.c **** 
 631:Drivers/STM32L4xx_HAL_Driver/Src/stm32l4xx_hal.c **** /**
 632:Drivers/STM32L4xx_HAL_Driver/Src/stm32l4xx_hal.c ****   * @brief  Disable the Internal FLASH Bank Swapping.
ARM GAS  C:\Users\Jakob\AppData\Local\Temp\cclvtDWl.s 			page 29


 633:Drivers/STM32L4xx_HAL_Driver/Src/stm32l4xx_hal.c ****   *
 634:Drivers/STM32L4xx_HAL_Driver/Src/stm32l4xx_hal.c ****   * @note   This function can be used only for STM32L4xx devices.
 635:Drivers/STM32L4xx_HAL_Driver/Src/stm32l4xx_hal.c ****   *
 636:Drivers/STM32L4xx_HAL_Driver/Src/stm32l4xx_hal.c ****   * @note   The default state : Flash Bank1 mapped at 0x08000000 (and aliased @0x0000 0000)
 637:Drivers/STM32L4xx_HAL_Driver/Src/stm32l4xx_hal.c ****   *         and Flash Bank2 mapped at 0x08100000 (and aliased at 0x00100000)
 638:Drivers/STM32L4xx_HAL_Driver/Src/stm32l4xx_hal.c ****   *
 639:Drivers/STM32L4xx_HAL_Driver/Src/stm32l4xx_hal.c ****   * @retval None
 640:Drivers/STM32L4xx_HAL_Driver/Src/stm32l4xx_hal.c ****   */
 641:Drivers/STM32L4xx_HAL_Driver/Src/stm32l4xx_hal.c **** void HAL_SYSCFG_DisableMemorySwappingBank(void)
 642:Drivers/STM32L4xx_HAL_Driver/Src/stm32l4xx_hal.c **** {
 959              		.loc 1 642 1 is_stmt 1 view -0
 960              		.cfi_startproc
 961              		@ args = 0, pretend = 0, frame = 0
 962              		@ frame_needed = 0, uses_anonymous_args = 0
 963              		@ link register save eliminated.
 643:Drivers/STM32L4xx_HAL_Driver/Src/stm32l4xx_hal.c **** 
 644:Drivers/STM32L4xx_HAL_Driver/Src/stm32l4xx_hal.c ****   *(__IO uint32_t *)FB_MODE_BB = 0x00000000UL;
 964              		.loc 1 644 3 view .LVU174
 965              		.loc 1 644 32 is_stmt 0 view .LVU175
 966 0000 014B     		ldr	r3, .L95
 967 0002 0022     		movs	r2, #0
 968 0004 1A62     		str	r2, [r3, #32]
 645:Drivers/STM32L4xx_HAL_Driver/Src/stm32l4xx_hal.c **** }
 969              		.loc 1 645 1 view .LVU176
 970 0006 7047     		bx	lr
 971              	.L96:
 972              		.align	2
 973              	.L95:
 974 0008 00002042 		.word	1109393408
 975              		.cfi_endproc
 976              	.LFE159:
 978              		.section	.text.HAL_SYSCFG_EnableIOAnalogSwitchBooster,"ax",%progbits
 979              		.align	1
 980              		.global	HAL_SYSCFG_EnableIOAnalogSwitchBooster
 981              		.syntax unified
 982              		.thumb
 983              		.thumb_func
 985              	HAL_SYSCFG_EnableIOAnalogSwitchBooster:
 986              	.LFB160:
 646:Drivers/STM32L4xx_HAL_Driver/Src/stm32l4xx_hal.c **** 
 647:Drivers/STM32L4xx_HAL_Driver/Src/stm32l4xx_hal.c **** #if defined(VREFBUF)
 648:Drivers/STM32L4xx_HAL_Driver/Src/stm32l4xx_hal.c **** /**
 649:Drivers/STM32L4xx_HAL_Driver/Src/stm32l4xx_hal.c ****   * @brief Configure the internal voltage reference buffer voltage scale.
 650:Drivers/STM32L4xx_HAL_Driver/Src/stm32l4xx_hal.c ****   * @param VoltageScaling  specifies the output voltage to achieve
 651:Drivers/STM32L4xx_HAL_Driver/Src/stm32l4xx_hal.c ****   *          This parameter can be one of the following values:
 652:Drivers/STM32L4xx_HAL_Driver/Src/stm32l4xx_hal.c ****   *            @arg SYSCFG_VREFBUF_VOLTAGE_SCALE0: VREF_OUT1 around 2.048 V.
 653:Drivers/STM32L4xx_HAL_Driver/Src/stm32l4xx_hal.c ****   *                                                This requires VDDA equal to or higher than 2.4 V
 654:Drivers/STM32L4xx_HAL_Driver/Src/stm32l4xx_hal.c ****   *            @arg SYSCFG_VREFBUF_VOLTAGE_SCALE1: VREF_OUT2 around 2.5 V.
 655:Drivers/STM32L4xx_HAL_Driver/Src/stm32l4xx_hal.c ****   *                                                This requires VDDA equal to or higher than 2.8 V
 656:Drivers/STM32L4xx_HAL_Driver/Src/stm32l4xx_hal.c ****   * @retval None
 657:Drivers/STM32L4xx_HAL_Driver/Src/stm32l4xx_hal.c ****   */
 658:Drivers/STM32L4xx_HAL_Driver/Src/stm32l4xx_hal.c **** void HAL_SYSCFG_VREFBUF_VoltageScalingConfig(uint32_t VoltageScaling)
 659:Drivers/STM32L4xx_HAL_Driver/Src/stm32l4xx_hal.c **** {
 660:Drivers/STM32L4xx_HAL_Driver/Src/stm32l4xx_hal.c ****   /* Check the parameters */
 661:Drivers/STM32L4xx_HAL_Driver/Src/stm32l4xx_hal.c ****   assert_param(IS_SYSCFG_VREFBUF_VOLTAGE_SCALE(VoltageScaling));
 662:Drivers/STM32L4xx_HAL_Driver/Src/stm32l4xx_hal.c **** 
 663:Drivers/STM32L4xx_HAL_Driver/Src/stm32l4xx_hal.c ****   MODIFY_REG(VREFBUF->CSR, VREFBUF_CSR_VRS, VoltageScaling);
ARM GAS  C:\Users\Jakob\AppData\Local\Temp\cclvtDWl.s 			page 30


 664:Drivers/STM32L4xx_HAL_Driver/Src/stm32l4xx_hal.c **** }
 665:Drivers/STM32L4xx_HAL_Driver/Src/stm32l4xx_hal.c **** 
 666:Drivers/STM32L4xx_HAL_Driver/Src/stm32l4xx_hal.c **** /**
 667:Drivers/STM32L4xx_HAL_Driver/Src/stm32l4xx_hal.c ****   * @brief Configure the internal voltage reference buffer high impedance mode.
 668:Drivers/STM32L4xx_HAL_Driver/Src/stm32l4xx_hal.c ****   * @param Mode  specifies the high impedance mode
 669:Drivers/STM32L4xx_HAL_Driver/Src/stm32l4xx_hal.c ****   *          This parameter can be one of the following values:
 670:Drivers/STM32L4xx_HAL_Driver/Src/stm32l4xx_hal.c ****   *            @arg SYSCFG_VREFBUF_HIGH_IMPEDANCE_DISABLE: VREF+ pin is internally connect to VREFI
 671:Drivers/STM32L4xx_HAL_Driver/Src/stm32l4xx_hal.c ****   *            @arg SYSCFG_VREFBUF_HIGH_IMPEDANCE_ENABLE: VREF+ pin is high impedance.
 672:Drivers/STM32L4xx_HAL_Driver/Src/stm32l4xx_hal.c ****   * @retval None
 673:Drivers/STM32L4xx_HAL_Driver/Src/stm32l4xx_hal.c ****   */
 674:Drivers/STM32L4xx_HAL_Driver/Src/stm32l4xx_hal.c **** void HAL_SYSCFG_VREFBUF_HighImpedanceConfig(uint32_t Mode)
 675:Drivers/STM32L4xx_HAL_Driver/Src/stm32l4xx_hal.c **** {
 676:Drivers/STM32L4xx_HAL_Driver/Src/stm32l4xx_hal.c ****   /* Check the parameters */
 677:Drivers/STM32L4xx_HAL_Driver/Src/stm32l4xx_hal.c ****   assert_param(IS_SYSCFG_VREFBUF_HIGH_IMPEDANCE(Mode));
 678:Drivers/STM32L4xx_HAL_Driver/Src/stm32l4xx_hal.c **** 
 679:Drivers/STM32L4xx_HAL_Driver/Src/stm32l4xx_hal.c ****   MODIFY_REG(VREFBUF->CSR, VREFBUF_CSR_HIZ, Mode);
 680:Drivers/STM32L4xx_HAL_Driver/Src/stm32l4xx_hal.c **** }
 681:Drivers/STM32L4xx_HAL_Driver/Src/stm32l4xx_hal.c **** 
 682:Drivers/STM32L4xx_HAL_Driver/Src/stm32l4xx_hal.c **** /**
 683:Drivers/STM32L4xx_HAL_Driver/Src/stm32l4xx_hal.c ****   * @brief  Tune the Internal Voltage Reference buffer (VREFBUF).
 684:Drivers/STM32L4xx_HAL_Driver/Src/stm32l4xx_hal.c ****   * @retval None
 685:Drivers/STM32L4xx_HAL_Driver/Src/stm32l4xx_hal.c ****   */
 686:Drivers/STM32L4xx_HAL_Driver/Src/stm32l4xx_hal.c **** void HAL_SYSCFG_VREFBUF_TrimmingConfig(uint32_t TrimmingValue)
 687:Drivers/STM32L4xx_HAL_Driver/Src/stm32l4xx_hal.c **** {
 688:Drivers/STM32L4xx_HAL_Driver/Src/stm32l4xx_hal.c ****   /* Check the parameters */
 689:Drivers/STM32L4xx_HAL_Driver/Src/stm32l4xx_hal.c ****   assert_param(IS_SYSCFG_VREFBUF_TRIMMING(TrimmingValue));
 690:Drivers/STM32L4xx_HAL_Driver/Src/stm32l4xx_hal.c **** 
 691:Drivers/STM32L4xx_HAL_Driver/Src/stm32l4xx_hal.c ****   MODIFY_REG(VREFBUF->CCR, VREFBUF_CCR_TRIM, TrimmingValue);
 692:Drivers/STM32L4xx_HAL_Driver/Src/stm32l4xx_hal.c **** }
 693:Drivers/STM32L4xx_HAL_Driver/Src/stm32l4xx_hal.c **** 
 694:Drivers/STM32L4xx_HAL_Driver/Src/stm32l4xx_hal.c **** /**
 695:Drivers/STM32L4xx_HAL_Driver/Src/stm32l4xx_hal.c ****   * @brief  Enable the Internal Voltage Reference buffer (VREFBUF).
 696:Drivers/STM32L4xx_HAL_Driver/Src/stm32l4xx_hal.c ****   * @retval HAL_OK/HAL_TIMEOUT
 697:Drivers/STM32L4xx_HAL_Driver/Src/stm32l4xx_hal.c ****   */
 698:Drivers/STM32L4xx_HAL_Driver/Src/stm32l4xx_hal.c **** HAL_StatusTypeDef HAL_SYSCFG_EnableVREFBUF(void)
 699:Drivers/STM32L4xx_HAL_Driver/Src/stm32l4xx_hal.c **** {
 700:Drivers/STM32L4xx_HAL_Driver/Src/stm32l4xx_hal.c ****   uint32_t  tickstart;
 701:Drivers/STM32L4xx_HAL_Driver/Src/stm32l4xx_hal.c **** 
 702:Drivers/STM32L4xx_HAL_Driver/Src/stm32l4xx_hal.c ****   SET_BIT(VREFBUF->CSR, VREFBUF_CSR_ENVR);
 703:Drivers/STM32L4xx_HAL_Driver/Src/stm32l4xx_hal.c **** 
 704:Drivers/STM32L4xx_HAL_Driver/Src/stm32l4xx_hal.c ****   /* Get Start Tick*/
 705:Drivers/STM32L4xx_HAL_Driver/Src/stm32l4xx_hal.c ****   tickstart = HAL_GetTick();
 706:Drivers/STM32L4xx_HAL_Driver/Src/stm32l4xx_hal.c **** 
 707:Drivers/STM32L4xx_HAL_Driver/Src/stm32l4xx_hal.c ****   /* Wait for VRR bit  */
 708:Drivers/STM32L4xx_HAL_Driver/Src/stm32l4xx_hal.c ****   while(READ_BIT(VREFBUF->CSR, VREFBUF_CSR_VRR) == 0U)
 709:Drivers/STM32L4xx_HAL_Driver/Src/stm32l4xx_hal.c ****   {
 710:Drivers/STM32L4xx_HAL_Driver/Src/stm32l4xx_hal.c ****     if((HAL_GetTick() - tickstart) > VREFBUF_TIMEOUT_VALUE)
 711:Drivers/STM32L4xx_HAL_Driver/Src/stm32l4xx_hal.c ****     {
 712:Drivers/STM32L4xx_HAL_Driver/Src/stm32l4xx_hal.c ****       return HAL_TIMEOUT;
 713:Drivers/STM32L4xx_HAL_Driver/Src/stm32l4xx_hal.c ****     }
 714:Drivers/STM32L4xx_HAL_Driver/Src/stm32l4xx_hal.c ****   }
 715:Drivers/STM32L4xx_HAL_Driver/Src/stm32l4xx_hal.c **** 
 716:Drivers/STM32L4xx_HAL_Driver/Src/stm32l4xx_hal.c ****   return HAL_OK;
 717:Drivers/STM32L4xx_HAL_Driver/Src/stm32l4xx_hal.c **** }
 718:Drivers/STM32L4xx_HAL_Driver/Src/stm32l4xx_hal.c **** 
 719:Drivers/STM32L4xx_HAL_Driver/Src/stm32l4xx_hal.c **** /**
 720:Drivers/STM32L4xx_HAL_Driver/Src/stm32l4xx_hal.c ****   * @brief  Disable the Internal Voltage Reference buffer (VREFBUF).
ARM GAS  C:\Users\Jakob\AppData\Local\Temp\cclvtDWl.s 			page 31


 721:Drivers/STM32L4xx_HAL_Driver/Src/stm32l4xx_hal.c ****   *
 722:Drivers/STM32L4xx_HAL_Driver/Src/stm32l4xx_hal.c ****   * @retval None
 723:Drivers/STM32L4xx_HAL_Driver/Src/stm32l4xx_hal.c ****   */
 724:Drivers/STM32L4xx_HAL_Driver/Src/stm32l4xx_hal.c **** void HAL_SYSCFG_DisableVREFBUF(void)
 725:Drivers/STM32L4xx_HAL_Driver/Src/stm32l4xx_hal.c **** {
 726:Drivers/STM32L4xx_HAL_Driver/Src/stm32l4xx_hal.c ****   CLEAR_BIT(VREFBUF->CSR, VREFBUF_CSR_ENVR);
 727:Drivers/STM32L4xx_HAL_Driver/Src/stm32l4xx_hal.c **** }
 728:Drivers/STM32L4xx_HAL_Driver/Src/stm32l4xx_hal.c **** #endif /* VREFBUF */
 729:Drivers/STM32L4xx_HAL_Driver/Src/stm32l4xx_hal.c **** 
 730:Drivers/STM32L4xx_HAL_Driver/Src/stm32l4xx_hal.c **** /**
 731:Drivers/STM32L4xx_HAL_Driver/Src/stm32l4xx_hal.c ****   * @brief  Enable the I/O analog switch voltage booster
 732:Drivers/STM32L4xx_HAL_Driver/Src/stm32l4xx_hal.c ****   *
 733:Drivers/STM32L4xx_HAL_Driver/Src/stm32l4xx_hal.c ****   * @retval None
 734:Drivers/STM32L4xx_HAL_Driver/Src/stm32l4xx_hal.c ****   */
 735:Drivers/STM32L4xx_HAL_Driver/Src/stm32l4xx_hal.c **** void HAL_SYSCFG_EnableIOAnalogSwitchBooster(void)
 736:Drivers/STM32L4xx_HAL_Driver/Src/stm32l4xx_hal.c **** {
 987              		.loc 1 736 1 is_stmt 1 view -0
 988              		.cfi_startproc
 989              		@ args = 0, pretend = 0, frame = 0
 990              		@ frame_needed = 0, uses_anonymous_args = 0
 991              		@ link register save eliminated.
 737:Drivers/STM32L4xx_HAL_Driver/Src/stm32l4xx_hal.c ****   SET_BIT(SYSCFG->CFGR1, SYSCFG_CFGR1_BOOSTEN);
 992              		.loc 1 737 3 view .LVU178
 993 0000 024A     		ldr	r2, .L98
 994 0002 5368     		ldr	r3, [r2, #4]
 995 0004 43F48073 		orr	r3, r3, #256
 996 0008 5360     		str	r3, [r2, #4]
 738:Drivers/STM32L4xx_HAL_Driver/Src/stm32l4xx_hal.c **** }
 997              		.loc 1 738 1 is_stmt 0 view .LVU179
 998 000a 7047     		bx	lr
 999              	.L99:
 1000              		.align	2
 1001              	.L98:
 1002 000c 00000140 		.word	1073807360
 1003              		.cfi_endproc
 1004              	.LFE160:
 1006              		.section	.text.HAL_SYSCFG_DisableIOAnalogSwitchBooster,"ax",%progbits
 1007              		.align	1
 1008              		.global	HAL_SYSCFG_DisableIOAnalogSwitchBooster
 1009              		.syntax unified
 1010              		.thumb
 1011              		.thumb_func
 1013              	HAL_SYSCFG_DisableIOAnalogSwitchBooster:
 1014              	.LFB161:
 739:Drivers/STM32L4xx_HAL_Driver/Src/stm32l4xx_hal.c **** 
 740:Drivers/STM32L4xx_HAL_Driver/Src/stm32l4xx_hal.c **** /**
 741:Drivers/STM32L4xx_HAL_Driver/Src/stm32l4xx_hal.c ****   * @brief  Disable the I/O analog switch voltage booster
 742:Drivers/STM32L4xx_HAL_Driver/Src/stm32l4xx_hal.c ****   *
 743:Drivers/STM32L4xx_HAL_Driver/Src/stm32l4xx_hal.c ****   * @retval None
 744:Drivers/STM32L4xx_HAL_Driver/Src/stm32l4xx_hal.c ****   */
 745:Drivers/STM32L4xx_HAL_Driver/Src/stm32l4xx_hal.c **** void HAL_SYSCFG_DisableIOAnalogSwitchBooster(void)
 746:Drivers/STM32L4xx_HAL_Driver/Src/stm32l4xx_hal.c **** {
 1015              		.loc 1 746 1 is_stmt 1 view -0
 1016              		.cfi_startproc
 1017              		@ args = 0, pretend = 0, frame = 0
 1018              		@ frame_needed = 0, uses_anonymous_args = 0
 1019              		@ link register save eliminated.
ARM GAS  C:\Users\Jakob\AppData\Local\Temp\cclvtDWl.s 			page 32


 747:Drivers/STM32L4xx_HAL_Driver/Src/stm32l4xx_hal.c ****   CLEAR_BIT(SYSCFG->CFGR1, SYSCFG_CFGR1_BOOSTEN);
 1020              		.loc 1 747 3 view .LVU181
 1021 0000 024A     		ldr	r2, .L101
 1022 0002 5368     		ldr	r3, [r2, #4]
 1023 0004 23F48073 		bic	r3, r3, #256
 1024 0008 5360     		str	r3, [r2, #4]
 748:Drivers/STM32L4xx_HAL_Driver/Src/stm32l4xx_hal.c **** }
 1025              		.loc 1 748 1 is_stmt 0 view .LVU182
 1026 000a 7047     		bx	lr
 1027              	.L102:
 1028              		.align	2
 1029              	.L101:
 1030 000c 00000140 		.word	1073807360
 1031              		.cfi_endproc
 1032              	.LFE161:
 1034              		.global	uwTickFreq
 1035              		.section	.data.uwTickFreq,"aw"
 1038              	uwTickFreq:
 1039 0000 01       		.byte	1
 1040              		.global	uwTickPrio
 1041              		.section	.data.uwTickPrio,"aw"
 1042              		.align	2
 1045              	uwTickPrio:
 1046 0000 10000000 		.word	16
 1047              		.global	uwTick
 1048              		.section	.bss.uwTick,"aw",%nobits
 1049              		.align	2
 1052              	uwTick:
 1053 0000 00000000 		.space	4
 1054              		.text
 1055              	.Letext0:
 1056              		.file 2 "Drivers/CMSIS/Device/ST/STM32L4xx/Include/stm32l432xx.h"
 1057              		.file 3 "C:/Program Files (x86)/Arm GNU Toolchain arm-none-eabi/13.2 Rel1/arm-none-eabi/include/ma
 1058              		.file 4 "C:/Program Files (x86)/Arm GNU Toolchain arm-none-eabi/13.2 Rel1/arm-none-eabi/include/sy
 1059              		.file 5 "Drivers/CMSIS/Include/core_cm4.h"
 1060              		.file 6 "Drivers/STM32L4xx_HAL_Driver/Inc/stm32l4xx_hal_def.h"
 1061              		.file 7 "Drivers/STM32L4xx_HAL_Driver/Inc/stm32l4xx_hal.h"
 1062              		.file 8 "Drivers/CMSIS/Device/ST/STM32L4xx/Include/system_stm32l4xx.h"
 1063              		.file 9 "Drivers/STM32L4xx_HAL_Driver/Inc/stm32l4xx_hal_cortex.h"
ARM GAS  C:\Users\Jakob\AppData\Local\Temp\cclvtDWl.s 			page 33

